GAS LISTING /tmp/cc6V5t34.s 			page 1


   1              		.file	"ccb.cpp"
   2              		.option pic
   3              		.option norelax
   4              		.text
   5              	.Ltext0:
   6              		.align	2
   7              		.globl	_ZN3CCB13threadWrapperEv
   9              	_ZN3CCB13threadWrapperEv:
  10              	.LFB40:
  11              		.file 1 "src/ccb.cpp"
   1:src/ccb.cpp   **** //
   2:src/ccb.cpp   **** // Created by os on 5/14/24.
   3:src/ccb.cpp   **** //
   4:src/ccb.cpp   **** 
   5:src/ccb.cpp   **** 
   6:src/ccb.cpp   **** 
   7:src/ccb.cpp   **** #include "../h/ccb.hpp"
   8:src/ccb.cpp   **** #include "../h/riscv.hpp"
   9:src/ccb.cpp   **** 
  10:src/ccb.cpp   **** uint64 CCB::threadCnt = 0;
  11:src/ccb.cpp   **** 
  12:src/ccb.cpp   **** CCB *CCB::running = nullptr;
  13:src/ccb.cpp   **** 
  14:src/ccb.cpp   **** CCB *CCB::createCoroutine(Body _body,void* _arg, uint64* _stack)
  15:src/ccb.cpp   **** {
  16:src/ccb.cpp   ****     threadCnt++;
  17:src/ccb.cpp   ****     return new CCB(_body, _arg, _stack);
  18:src/ccb.cpp   **** }
  19:src/ccb.cpp   **** 
  20:src/ccb.cpp   **** 
  21:src/ccb.cpp   **** void CCB::dispatch()
  22:src/ccb.cpp   **** {
  23:src/ccb.cpp   ****     CCB *old = running;
  24:src/ccb.cpp   ****     if (old->isFinished()) {
  25:src/ccb.cpp   ****         threadCnt--;
  26:src/ccb.cpp   ****         memoryAllocator::mem_free(old);
  27:src/ccb.cpp   ****     }
  28:src/ccb.cpp   ****     else{
  29:src/ccb.cpp   ****         Scheduler::put(old);
  30:src/ccb.cpp   ****     }
  31:src/ccb.cpp   **** 
  32:src/ccb.cpp   ****     running = Scheduler::get();
  33:src/ccb.cpp   ****     CCB::contextSwitch(&old->context, &running->context);
  34:src/ccb.cpp   **** }
  35:src/ccb.cpp   **** 
  36:src/ccb.cpp   **** void CCB::threadWrapper() {
  12              		.loc 1 36 27
  13              		.cfi_startproc
  14 0000 130101FD 		addi	sp,sp,-48
  15              		.cfi_def_cfa_offset 48
  16 0004 23341102 		sd	ra,40(sp)
  17 0008 23308102 		sd	s0,32(sp)
  18 000c 233C9100 		sd	s1,24(sp)
  19              		.cfi_offset 1, -8
  20              		.cfi_offset 8, -16
  21              		.cfi_offset 9, -24
  22 0010 13040103 		addi	s0,sp,48
GAS LISTING /tmp/cc6V5t34.s 			page 2


  23              		.cfi_def_cfa 8, 0
  37:src/ccb.cpp   **** 
  38:src/ccb.cpp   ****     Riscv::mc_sstatus(Riscv::SSTATUS_SPP);
  24              		.loc 1 38 5
  25              	.LVL0:
  26              	.LBB15:
  27              	.LBB16:
  28              		.file 2 "src/../h/riscv.hpp"
   1:src/../h/riscv.hpp **** //
   2:src/../h/riscv.hpp **** // Created by os on 5/8/24.
   3:src/../h/riscv.hpp **** //
   4:src/../h/riscv.hpp **** 
   5:src/../h/riscv.hpp **** #ifndef OSPROJECT_RISCV_HPP
   6:src/../h/riscv.hpp **** #define OSPROJECT_RISCV_HPP
   7:src/../h/riscv.hpp **** 
   8:src/../h/riscv.hpp **** #include "../lib/hw.h"
   9:src/../h/riscv.hpp **** 
  10:src/../h/riscv.hpp **** class Riscv
  11:src/../h/riscv.hpp **** {
  12:src/../h/riscv.hpp **** public:
  13:src/../h/riscv.hpp **** 
  14:src/../h/riscv.hpp ****     static void popSppSpie();
  15:src/../h/riscv.hpp **** 
  16:src/../h/riscv.hpp ****     // read register scause
  17:src/../h/riscv.hpp ****     static uint64 r_scause();
  18:src/../h/riscv.hpp **** 
  19:src/../h/riscv.hpp ****     // write register scause
  20:src/../h/riscv.hpp ****     static void w_scause(uint64 scause);
  21:src/../h/riscv.hpp **** 
  22:src/../h/riscv.hpp ****     // read register sepc
  23:src/../h/riscv.hpp ****     static uint64 r_sepc();
  24:src/../h/riscv.hpp **** 
  25:src/../h/riscv.hpp ****     // write register sepc
  26:src/../h/riscv.hpp ****     static void w_sepc(uint64 sepc);
  27:src/../h/riscv.hpp **** 
  28:src/../h/riscv.hpp ****     // read register stvec
  29:src/../h/riscv.hpp ****     static uint64 r_stvec();
  30:src/../h/riscv.hpp **** 
  31:src/../h/riscv.hpp ****     // write register stvec
  32:src/../h/riscv.hpp ****     static void w_stvec(uint64 stvec);
  33:src/../h/riscv.hpp **** 
  34:src/../h/riscv.hpp ****     // read register stval
  35:src/../h/riscv.hpp ****     static uint64 r_stval();
  36:src/../h/riscv.hpp **** 
  37:src/../h/riscv.hpp ****     // write register stval
  38:src/../h/riscv.hpp ****     static void w_stval(uint64 stval);
  39:src/../h/riscv.hpp **** 
  40:src/../h/riscv.hpp ****     enum BitMaskSip
  41:src/../h/riscv.hpp ****     {
  42:src/../h/riscv.hpp ****         SIP_SSIP = (1 << 1),
  43:src/../h/riscv.hpp ****         SIP_STIP = (1 << 5),
  44:src/../h/riscv.hpp ****         SIP_SEIP = (1 << 9),
  45:src/../h/riscv.hpp ****     };
  46:src/../h/riscv.hpp **** 
  47:src/../h/riscv.hpp ****     // mask set register sip
  48:src/../h/riscv.hpp ****     static void ms_sip(uint64 mask);
  49:src/../h/riscv.hpp **** 
GAS LISTING /tmp/cc6V5t34.s 			page 3


  50:src/../h/riscv.hpp ****     // mask clear register sip
  51:src/../h/riscv.hpp ****     static void mc_sip(uint64 mask);
  52:src/../h/riscv.hpp **** 
  53:src/../h/riscv.hpp ****     // read register sip
  54:src/../h/riscv.hpp ****     static uint64 r_sip();
  55:src/../h/riscv.hpp **** 
  56:src/../h/riscv.hpp ****     // write register sip
  57:src/../h/riscv.hpp ****     static void w_sip(uint64 sip);
  58:src/../h/riscv.hpp **** 
  59:src/../h/riscv.hpp ****     enum BitMaskSstatus
  60:src/../h/riscv.hpp ****     {
  61:src/../h/riscv.hpp ****         SSTATUS_SIE = (1 << 1),
  62:src/../h/riscv.hpp ****         SSTATUS_SPIE = (1 << 5),
  63:src/../h/riscv.hpp ****         SSTATUS_SPP = (1 << 8),
  64:src/../h/riscv.hpp ****     };
  65:src/../h/riscv.hpp **** 
  66:src/../h/riscv.hpp ****     // mask set register sstatus
  67:src/../h/riscv.hpp ****     static void ms_sstatus(uint64 mask);
  68:src/../h/riscv.hpp **** 
  69:src/../h/riscv.hpp ****     // mask clear register sstatus
  70:src/../h/riscv.hpp ****     static void mc_sstatus(uint64 mask);
  71:src/../h/riscv.hpp **** 
  72:src/../h/riscv.hpp ****     // read register sstatus
  73:src/../h/riscv.hpp ****     static uint64 r_sstatus();
  74:src/../h/riscv.hpp **** 
  75:src/../h/riscv.hpp ****     // write register sstatus
  76:src/../h/riscv.hpp ****     static void w_sstatus(uint64 sstatus);
  77:src/../h/riscv.hpp **** 
  78:src/../h/riscv.hpp ****     // supervisor trap
  79:src/../h/riscv.hpp ****     static void supervisorTrap();
  80:src/../h/riscv.hpp **** 
  81:src/../h/riscv.hpp **** private:
  82:src/../h/riscv.hpp ****     // supervisor trap handler
  83:src/../h/riscv.hpp ****     static void handleSupervisorTrap();
  84:src/../h/riscv.hpp **** 
  85:src/../h/riscv.hpp **** };
  86:src/../h/riscv.hpp **** 
  87:src/../h/riscv.hpp **** inline uint64 Riscv::r_scause()
  88:src/../h/riscv.hpp **** {
  89:src/../h/riscv.hpp ****     uint64 volatile scause;
  90:src/../h/riscv.hpp ****     __asm__ volatile ("csrr %[scause], scause" : [scause] "=r"(scause));
  91:src/../h/riscv.hpp ****     return scause;
  92:src/../h/riscv.hpp **** }
  93:src/../h/riscv.hpp **** 
  94:src/../h/riscv.hpp **** inline void Riscv::w_scause(uint64 scause)
  95:src/../h/riscv.hpp **** {
  96:src/../h/riscv.hpp ****     __asm__ volatile ("csrw scause, %[scause]" : : [scause] "r"(scause));
  97:src/../h/riscv.hpp **** }
  98:src/../h/riscv.hpp **** 
  99:src/../h/riscv.hpp **** inline uint64 Riscv::r_sepc()
 100:src/../h/riscv.hpp **** {
 101:src/../h/riscv.hpp ****     uint64 volatile sepc;
 102:src/../h/riscv.hpp ****     __asm__ volatile ("csrr %[sepc], sepc" : [sepc] "=r"(sepc));
 103:src/../h/riscv.hpp ****     return sepc;
 104:src/../h/riscv.hpp **** }
 105:src/../h/riscv.hpp **** 
 106:src/../h/riscv.hpp **** inline void Riscv::w_sepc(uint64 sepc)
GAS LISTING /tmp/cc6V5t34.s 			page 4


 107:src/../h/riscv.hpp **** {
 108:src/../h/riscv.hpp ****     __asm__ volatile ("csrw sepc, %[sepc]" : : [sepc] "r"(sepc));
 109:src/../h/riscv.hpp **** }
 110:src/../h/riscv.hpp **** 
 111:src/../h/riscv.hpp **** inline uint64 Riscv::r_stvec()
 112:src/../h/riscv.hpp **** {
 113:src/../h/riscv.hpp ****     uint64 volatile stvec;
 114:src/../h/riscv.hpp ****     __asm__ volatile ("csrr %[stvec], stvec" : [stvec] "=r"(stvec));
 115:src/../h/riscv.hpp ****     return stvec;
 116:src/../h/riscv.hpp **** }
 117:src/../h/riscv.hpp **** 
 118:src/../h/riscv.hpp **** inline void Riscv::w_stvec(uint64 stvec)
 119:src/../h/riscv.hpp **** {
 120:src/../h/riscv.hpp ****     __asm__ volatile ("csrw stvec, %[stvec]" : : [stvec] "r"(stvec));
 121:src/../h/riscv.hpp **** }
 122:src/../h/riscv.hpp **** 
 123:src/../h/riscv.hpp **** inline uint64 Riscv::r_stval()
 124:src/../h/riscv.hpp **** {
 125:src/../h/riscv.hpp ****     uint64 volatile stval;
 126:src/../h/riscv.hpp ****     __asm__ volatile ("csrr %[stval], stval" : [stval] "=r"(stval));
 127:src/../h/riscv.hpp ****     return stval;
 128:src/../h/riscv.hpp **** }
 129:src/../h/riscv.hpp **** 
 130:src/../h/riscv.hpp **** inline void Riscv::w_stval(uint64 stval)
 131:src/../h/riscv.hpp **** {
 132:src/../h/riscv.hpp ****     __asm__ volatile ("csrw stval, %[stval]" : : [stval] "r"(stval));
 133:src/../h/riscv.hpp **** }
 134:src/../h/riscv.hpp **** 
 135:src/../h/riscv.hpp **** inline void Riscv::ms_sip(uint64 mask)
 136:src/../h/riscv.hpp **** {
 137:src/../h/riscv.hpp ****     __asm__ volatile ("csrs sip, %[mask]" : : [mask] "r"(mask));
 138:src/../h/riscv.hpp **** }
 139:src/../h/riscv.hpp **** 
 140:src/../h/riscv.hpp **** inline void Riscv::mc_sip(uint64 mask)
 141:src/../h/riscv.hpp **** {
 142:src/../h/riscv.hpp ****     __asm__ volatile ("csrc sip, %[mask]" : : [mask] "r"(mask));
 143:src/../h/riscv.hpp **** }
 144:src/../h/riscv.hpp **** 
 145:src/../h/riscv.hpp **** inline uint64 Riscv::r_sip()
 146:src/../h/riscv.hpp **** {
 147:src/../h/riscv.hpp ****     uint64 volatile sip;
 148:src/../h/riscv.hpp ****     __asm__ volatile ("csrr %[sip], sip" : [sip] "=r"(sip));
 149:src/../h/riscv.hpp ****     return sip;
 150:src/../h/riscv.hpp **** }
 151:src/../h/riscv.hpp **** 
 152:src/../h/riscv.hpp **** inline void Riscv::w_sip(uint64 sip)
 153:src/../h/riscv.hpp **** {
 154:src/../h/riscv.hpp ****     __asm__ volatile ("csrw sip, %[sip]" : : [sip] "r"(sip));
 155:src/../h/riscv.hpp **** }
 156:src/../h/riscv.hpp **** 
 157:src/../h/riscv.hpp **** inline void Riscv::ms_sstatus(uint64 mask)
 158:src/../h/riscv.hpp **** {
 159:src/../h/riscv.hpp ****     __asm__ volatile ("csrs sstatus, %[mask]" : : [mask] "r"(mask));
 160:src/../h/riscv.hpp **** }
 161:src/../h/riscv.hpp **** 
 162:src/../h/riscv.hpp **** inline void Riscv::mc_sstatus(uint64 mask)
 163:src/../h/riscv.hpp **** {
GAS LISTING /tmp/cc6V5t34.s 			page 5


 164:src/../h/riscv.hpp ****     __asm__ volatile ("csrc sstatus, %[mask]" : : [mask] "r"(mask));
  29              		.loc 2 164 5
  30              		.loc 2 164 68 is_stmt 0
  31 0014 93070010 		li	a5,256
  32              	#APP
  33              	# 164 "src/../h/riscv.hpp" 1
 165              	}
  34              		csrc sstatus, a5
  35              	# 0 "" 2
  36              	.LVL1:
  37              	#NO_APP
  38              	.LBE16:
  39              	.LBE15:
  39:src/ccb.cpp   ****     Riscv::popSppSpie();
  40              		.loc 1 39 5 is_stmt 1
  41              		.loc 1 39 22 is_stmt 0
  42 001c 97000000 		call	_ZN5Riscv10popSppSpieEv@plt
  42      E7800000 
  43              	.LVL2:
  40:src/ccb.cpp   ****     running->body(running->arg);
  44              		.loc 1 40 5 is_stmt 1
  45              		.loc 1 40 14 is_stmt 0
  46 0024 97040000 		lla	s1,.LANCHOR0
  46      93840400 
  47 002c 83B70400 		ld	a5,0(s1)
  48 0030 03B70700 		ld	a4,0(a5)
  49              		.loc 1 40 18
  50 0034 03B58700 		ld	a0,8(a5)
  51 0038 E7000700 		jalr	a4
  52              	.LVL3:
  41:src/ccb.cpp   ****     running->setFinished(true);
  53              		.loc 1 41 5 is_stmt 1
  54              		.loc 1 41 25 is_stmt 0
  55 003c 83B70400 		ld	a5,0(s1)
  56              	.LVL4:
  57              	.LBB17:
  58              	.LBB18:
  59              		.file 3 "src/../h/ccb.hpp"
   1:src/../h/ccb.hpp **** //
   2:src/../h/ccb.hpp **** // Created by marko on 20.4.22..
   3:src/../h/ccb.hpp **** //
   4:src/../h/ccb.hpp **** 
   5:src/../h/ccb.hpp **** #ifndef OSPROJECT_CCB_HPP
   6:src/../h/ccb.hpp **** #define OSPROJECT_CCB_HPP
   7:src/../h/ccb.hpp **** 
   8:src/../h/ccb.hpp **** #include "../lib/hw.h"
   9:src/../h/ccb.hpp **** #include "scheduler.hpp"
  10:src/../h/ccb.hpp **** // Coroutine Control Block
  11:src/../h/ccb.hpp **** class CCB
  12:src/../h/ccb.hpp **** {
  13:src/../h/ccb.hpp **** public:
  14:src/../h/ccb.hpp ****     using Body = void (*)(void*); //function for which we want to create a thread
  15:src/../h/ccb.hpp **** 
  16:src/../h/ccb.hpp ****     ~CCB() { delete[] stack;}
  17:src/../h/ccb.hpp **** 
  18:src/../h/ccb.hpp ****     static CCB *createCoroutine(Body _body, void* _arg, uint64* _stack);
  19:src/../h/ccb.hpp **** 
GAS LISTING /tmp/cc6V5t34.s 			page 6


  20:src/../h/ccb.hpp ****     static CCB *running; //the currently running thread
  21:src/../h/ccb.hpp **** 
  22:src/../h/ccb.hpp ****     bool isFinished() const { return finished; }
  23:src/../h/ccb.hpp **** 
  24:src/../h/ccb.hpp ****     void setFinished(bool value) { finished = value; }
  60              		.loc 3 24 36 is_stmt 1
  61              		.loc 3 24 45 is_stmt 0
  62 0040 13071000 		li	a4,1
  63 0044 2384E702 		sb	a4,40(a5)
  64              	.LVL5:
  65              	.LBE18:
  66              	.LBE17:
  42:src/ccb.cpp   **** 
  43:src/ccb.cpp   ****     uint64 volatile code = 0x13;
  67              		.loc 1 43 5 is_stmt 1
  68              		.loc 1 43 21 is_stmt 0
  69 0048 93073001 		li	a5,19
  70 004c 233CF4FC 		sd	a5,-40(s0)
  44:src/ccb.cpp   ****     __asm__ volatile("mv a0, %0" :  : "r" (code));
  71              		.loc 1 44 5 is_stmt 1
  72              		.loc 1 44 44 is_stmt 0
  73 0050 833784FD 		ld	a5,-40(s0)
  74              		.loc 1 44 50
  75              	#APP
  76              	# 44 "src/ccb.cpp" 1
  45              	    __asm__ volatile("ecall");
  77              		mv a0, a5
  78              	# 0 "" 2
  79              		.loc 1 45 5 is_stmt 1
  80              		.loc 1 45 30 is_stmt 0
  81              	# 45 "src/ccb.cpp" 1
  46              	}
  82              		ecall
  83              	# 0 "" 2
  84              		.loc 1 46 1
  85              	#NO_APP
  86 005c 83308102 		ld	ra,40(sp)
  87              		.cfi_restore 1
  88 0060 03340102 		ld	s0,32(sp)
  89              		.cfi_restore 8
  90              		.cfi_def_cfa 2, 48
  91 0064 83348101 		ld	s1,24(sp)
  92              		.cfi_restore 9
  93 0068 13010103 		addi	sp,sp,48
  94              		.cfi_def_cfa_offset 0
  95 006c 67800000 		jr	ra
  96              		.cfi_endproc
  97              	.LFE40:
  99              		.align	2
 100              		.globl	_ZN3CCB15createCoroutineEPFvPvES0_Pm
 102              	_ZN3CCB15createCoroutineEPFvPvES0_Pm:
 103              	.LFB38:
  15:src/ccb.cpp   ****     threadCnt++;
 104              		.loc 1 15 1 is_stmt 1
 105              		.cfi_startproc
 106              		.cfi_personality 0x9b,DW.ref.__gxx_personality_v0
 107              		.cfi_lsda 0x1b,.LLSDA38
GAS LISTING /tmp/cc6V5t34.s 			page 7


 108              	.LVL6:
 109 0070 130101FC 		addi	sp,sp,-64
 110              		.cfi_def_cfa_offset 64
 111 0074 233C1102 		sd	ra,56(sp)
 112 0078 23388102 		sd	s0,48(sp)
 113 007c 23349102 		sd	s1,40(sp)
 114 0080 23302103 		sd	s2,32(sp)
 115 0084 233C3101 		sd	s3,24(sp)
 116 0088 23384101 		sd	s4,16(sp)
 117              		.cfi_offset 1, -8
 118              		.cfi_offset 8, -16
 119              		.cfi_offset 9, -24
 120              		.cfi_offset 18, -32
 121              		.cfi_offset 19, -40
 122              		.cfi_offset 20, -48
 123 008c 13040104 		addi	s0,sp,64
 124              		.cfi_def_cfa 8, 0
 125 0090 93090500 		mv	s3,a0
 126 0094 138A0500 		mv	s4,a1
 127 0098 13090600 		mv	s2,a2
  16:src/ccb.cpp   ****     return new CCB(_body, _arg, _stack);
 128              		.loc 1 16 5
  16:src/ccb.cpp   ****     return new CCB(_body, _arg, _stack);
 129              		.loc 1 16 14 is_stmt 0
 130 009c 17070000 		lla	a4,.LANCHOR0
 130      13070700 
 131 00a4 83378700 		ld	a5,8(a4)
 132 00a8 93871700 		addi	a5,a5,1
 133 00ac 2334F700 		sd	a5,8(a4)
  17:src/ccb.cpp   **** }
 134              		.loc 1 17 5 is_stmt 1
 135              	.LVL7:
 136              	.LBB19:
 137              	.LBB20:
  25:src/../h/ccb.hpp **** 
  26:src/../h/ccb.hpp ****     static void dispatch();//change of context
  27:src/../h/ccb.hpp **** 
  28:src/../h/ccb.hpp ****     void* operator new(size_t size){ //allocation of space for a new thread
  29:src/../h/ccb.hpp ****         uint64 volatile num_of_blocks = (size + sizeof(uint64) + sizeof(void*)) / MEM_BLOCK_SIZE;
 138              		.loc 3 29 9
 139              		.loc 3 29 25 is_stmt 0
 140 00b0 93071000 		li	a5,1
 141 00b4 2334F4FC 		sd	a5,-56(s0)
  30:src/../h/ccb.hpp ****         if(size + sizeof(void*) + sizeof(uint64) % MEM_BLOCK_SIZE) num_of_blocks++;
 142              		.loc 3 30 9 is_stmt 1
 143              		.loc 3 30 68
 144              		.loc 3 30 81 is_stmt 0
 145 00b8 833784FC 		ld	a5,-56(s0)
 146 00bc 93871700 		addi	a5,a5,1
 147 00c0 2334F4FC 		sd	a5,-56(s0)
  31:src/../h/ccb.hpp **** 
  32:src/../h/ccb.hpp ****         return memoryAllocator::mem_alloc(num_of_blocks);
 148              		.loc 3 32 9 is_stmt 1
 149              		.loc 3 32 42 is_stmt 0
 150 00c4 033584FC 		ld	a0,-56(s0)
 151              	.LVL8:
 152              	.LEHB0:
GAS LISTING /tmp/cc6V5t34.s 			page 8


 153 00c8 97000000 		call	_ZN15memoryAllocator9mem_allocEm@plt
 153      E7800000 
 154              	.LVL9:
 155              	.LEHE0:
 156 00d0 93040500 		mv	s1,a0
 157              	.LVL10:
 158              	.LBE20:
 159              	.LBE19:
 160              	.LBB21:
 161              	.LBB22:
  33:src/../h/ccb.hpp ****     }
  34:src/../h/ccb.hpp **** 
  35:src/../h/ccb.hpp ****     void operator delete(void* p){ //deleting space of a thread
  36:src/../h/ccb.hpp ****         memoryAllocator::mem_free(p);
  37:src/../h/ccb.hpp ****     }
  38:src/../h/ccb.hpp **** 
  39:src/../h/ccb.hpp ****     static int getThreadCnt();
  40:src/../h/ccb.hpp **** 
  41:src/../h/ccb.hpp **** 
  42:src/../h/ccb.hpp ****     int time_sleep (time_t);
  43:src/../h/ccb.hpp **** private:
  44:src/../h/ccb.hpp ****     explicit CCB(Body _body,void* _arg, uint64* _stack) : body(_body), arg(_arg), stack(_stack),
  45:src/../h/ccb.hpp ****             context({body != nullptr ? (uint64) &threadWrapper : 0,
  46:src/../h/ccb.hpp ****                      stack != nullptr ? (uint64) &stack[DEFAULT_STACK_SIZE] : 0
  47:src/../h/ccb.hpp ****                     }),
  48:src/../h/ccb.hpp ****             finished(false)
 162              		.loc 3 48 27
 163 00d4 23303501 		sd	s3,0(a0)
 164 00d8 23344501 		sd	s4,8(a0)
 165 00dc 23382501 		sd	s2,16(a0)
  45:src/../h/ccb.hpp ****                      stack != nullptr ? (uint64) &stack[DEFAULT_STACK_SIZE] : 0
 166              		.loc 3 45 38
 167 00e0 638C0902 		beqz	s3,.L8
 168 00e4 97070000 		lla	a5,_ZN3CCB13threadWrapperEv
 168      93870700 
 169              	.L4:
 170              		.loc 3 48 27
 171 00ec 23BCF400 		sd	a5,24(s1)
  46:src/../h/ccb.hpp ****                     }),
 172              		.loc 3 46 39
 173 00f0 63080902 		beqz	s2,.L9
  46:src/../h/ccb.hpp ****                     }),
 174              		.loc 3 46 50
 175 00f4 37860000 		li	a2,32768
 176 00f8 3309C900 		add	s2,s2,a2
 177              	.LVL11:
 178              	.L5:
 179              		.loc 3 48 27
 180 00fc 23B02403 		sd	s2,32(s1)
 181 0100 23840402 		sb	zero,40(s1)
  49:src/../h/ccb.hpp ****     {
  50:src/../h/ccb.hpp ****         if (body != nullptr) { Scheduler::put(this);}
 182              		.loc 3 50 9 is_stmt 1
 183 0104 63800904 		beqz	s3,.L3
 184              		.loc 3 50 32
 185              		.loc 3 50 46 is_stmt 0
 186 0108 13850400 		mv	a0,s1
GAS LISTING /tmp/cc6V5t34.s 			page 9


 187              	.LEHB1:
 188 010c 97000000 		call	_ZN9Scheduler3putEP3CCB@plt
 188      E7800000 
 189              	.LVL12:
 190              	.LEHE1:
 191 0114 6F000003 		j	.L3
 192              	.LVL13:
 193              	.L8:
  45:src/../h/ccb.hpp ****                      stack != nullptr ? (uint64) &stack[DEFAULT_STACK_SIZE] : 0
 194              		.loc 3 45 38
 195 0118 93070000 		li	a5,0
 196 011c 6FF01FFD 		j	.L4
 197              	.L9:
  46:src/../h/ccb.hpp ****                     }),
 198              		.loc 3 46 39
 199 0120 13090000 		li	s2,0
 200              	.LVL14:
 201 0124 6FF09FFD 		j	.L5
 202              	.LVL15:
 203              	.L10:
 204 0128 13090500 		mv	s2,a0
 205              	.LVL16:
 206              	.LBE22:
 207              	.LBE21:
 208              	.LBB23:
 209              	.LBB24:
  36:src/../h/ccb.hpp ****     }
 210              		.loc 3 36 9 is_stmt 1
  36:src/../h/ccb.hpp ****     }
 211              		.loc 3 36 34 is_stmt 0
 212 012c 13850400 		mv	a0,s1
 213 0130 97000000 		call	_ZN15memoryAllocator8mem_freeEPv@plt
 213      E7800000 
 214              	.LVL17:
 215 0138 13050900 		mv	a0,s2
 216              	.LEHB2:
 217 013c 97000000 		call	_Unwind_Resume@plt
 217      E7800000 
 218              	.LVL18:
 219              	.LEHE2:
 220              	.L3:
 221              	.LBE24:
 222              	.LBE23:
  18:src/ccb.cpp   **** 
 223              		.loc 1 18 1
 224 0144 13850400 		mv	a0,s1
 225 0148 83308103 		ld	ra,56(sp)
 226              		.cfi_restore 1
 227 014c 03340103 		ld	s0,48(sp)
 228              		.cfi_restore 8
 229              		.cfi_def_cfa 2, 64
 230 0150 83348102 		ld	s1,40(sp)
 231              		.cfi_restore 9
 232              	.LVL19:
 233 0154 03390102 		ld	s2,32(sp)
 234              		.cfi_restore 18
 235 0158 83398101 		ld	s3,24(sp)
GAS LISTING /tmp/cc6V5t34.s 			page 10


 236              		.cfi_restore 19
 237              	.LVL20:
 238 015c 033A0101 		ld	s4,16(sp)
 239              		.cfi_restore 20
 240              	.LVL21:
 241 0160 13010104 		addi	sp,sp,64
 242              		.cfi_def_cfa_offset 0
 243 0164 67800000 		jr	ra
 244              		.cfi_endproc
 245              	.LFE38:
 246              		.globl	__gxx_personality_v0
 247              		.section	.gcc_except_table,"a",@progbits
 248              	.LLSDA38:
 249 0000 FF       		.byte	0xff
 250 0001 FF       		.byte	0xff
 251 0002 03       		.byte	0x3
 252 0003 27       		.byte	0x27
 253 0004 00000000 		.4byte	.LEHB0-.LFB38
 254 0008 00000000 		.4byte	.LEHE0-.LEHB0
 255 000c 00000000 		.4byte	0
 256 0010 00       		.byte	0
 257 0011 00000000 		.4byte	.LEHB1-.LFB38
 258 0015 00000000 		.4byte	.LEHE1-.LEHB1
 259 0019 00000000 		.4byte	.L10-.LFB38
 260 001d 00       		.byte	0
 261 001e 00000000 		.4byte	.LEHB2-.LFB38
 262 0022 00000000 		.4byte	.LEHE2-.LEHB2
 263 0026 00000000 		.4byte	0
 264 002a 00       		.byte	0
 265              		.text
 267              		.align	2
 268              		.globl	_ZN3CCB8dispatchEv
 270              	_ZN3CCB8dispatchEv:
 271              	.LFB39:
  22:src/ccb.cpp   ****     CCB *old = running;
 272              		.loc 1 22 1 is_stmt 1
 273              		.cfi_startproc
 274 0168 130101FE 		addi	sp,sp,-32
 275              		.cfi_def_cfa_offset 32
 276 016c 233C1100 		sd	ra,24(sp)
 277 0170 23388100 		sd	s0,16(sp)
 278 0174 23349100 		sd	s1,8(sp)
 279              		.cfi_offset 1, -8
 280              		.cfi_offset 8, -16
 281              		.cfi_offset 9, -24
 282 0178 13040102 		addi	s0,sp,32
 283              		.cfi_def_cfa 8, 0
  23:src/ccb.cpp   ****     if (old->isFinished()) {
 284              		.loc 1 23 5
  23:src/ccb.cpp   ****     if (old->isFinished()) {
 285              		.loc 1 23 10 is_stmt 0
 286 017c 97040000 		ld	s1,.LANCHOR0
 286      83B40400 
 287              	.LVL22:
  24:src/ccb.cpp   ****         threadCnt--;
 288              		.loc 1 24 5 is_stmt 1
 289              	.LBB25:
GAS LISTING /tmp/cc6V5t34.s 			page 11


 290              	.LBB26:
  22:src/../h/ccb.hpp **** 
 291              		.loc 3 22 31
  22:src/../h/ccb.hpp **** 
 292              		.loc 3 22 38 is_stmt 0
 293 0184 83C78402 		lbu	a5,40(s1)
 294              	.LVL23:
 295              	.LBE26:
 296              	.LBE25:
  24:src/ccb.cpp   ****         threadCnt--;
 297              		.loc 1 24 5
 298 0188 638C0704 		beqz	a5,.L13
  25:src/ccb.cpp   ****         memoryAllocator::mem_free(old);
 299              		.loc 1 25 9 is_stmt 1
  25:src/ccb.cpp   ****         memoryAllocator::mem_free(old);
 300              		.loc 1 25 18 is_stmt 0
 301 018c 17070000 		lla	a4,.LANCHOR0
 301      13070700 
 302 0194 83378700 		ld	a5,8(a4)
 303 0198 9387F7FF 		addi	a5,a5,-1
 304 019c 2334F700 		sd	a5,8(a4)
  26:src/ccb.cpp   ****     }
 305              		.loc 1 26 9 is_stmt 1
  26:src/ccb.cpp   ****     }
 306              		.loc 1 26 34 is_stmt 0
 307 01a0 13850400 		mv	a0,s1
 308 01a4 97000000 		call	_ZN15memoryAllocator8mem_freeEPv@plt
 308      E7800000 
 309              	.LVL24:
 310              	.L14:
  32:src/ccb.cpp   ****     CCB::contextSwitch(&old->context, &running->context);
 311              		.loc 1 32 5 is_stmt 1
  32:src/ccb.cpp   ****     CCB::contextSwitch(&old->context, &running->context);
 312              		.loc 1 32 29 is_stmt 0
 313 01ac 97000000 		call	_ZN9Scheduler3getEv@plt
 313      E7800000 
 314              	.LVL25:
  32:src/ccb.cpp   ****     CCB::contextSwitch(&old->context, &running->context);
 315              		.loc 1 32 13
 316 01b4 97070000 		sd	a0,.LANCHOR0,a5
 316      23B0A700 
  33:src/ccb.cpp   **** }
 317              		.loc 1 33 5 is_stmt 1
  33:src/ccb.cpp   **** }
 318              		.loc 1 33 23 is_stmt 0
 319 01bc 93058501 		addi	a1,a0,24
 320 01c0 13858401 		addi	a0,s1,24
 321 01c4 97000000 		call	_ZN3CCB13contextSwitchEPNS_7ContextES1_@plt
 321      E7800000 
 322              	.LVL26:
  34:src/ccb.cpp   **** 
 323              		.loc 1 34 1
 324 01cc 83308101 		ld	ra,24(sp)
 325              		.cfi_remember_state
 326              		.cfi_restore 1
 327 01d0 03340101 		ld	s0,16(sp)
 328              		.cfi_restore 8
GAS LISTING /tmp/cc6V5t34.s 			page 12


 329              		.cfi_def_cfa 2, 32
 330 01d4 83348100 		ld	s1,8(sp)
 331              		.cfi_restore 9
 332              	.LVL27:
 333 01d8 13010102 		addi	sp,sp,32
 334              		.cfi_def_cfa_offset 0
 335 01dc 67800000 		jr	ra
 336              	.LVL28:
 337              	.L13:
 338              		.cfi_restore_state
  29:src/ccb.cpp   ****     }
 339              		.loc 1 29 9 is_stmt 1
  29:src/ccb.cpp   ****     }
 340              		.loc 1 29 23 is_stmt 0
 341 01e0 13850400 		mv	a0,s1
 342 01e4 97000000 		call	_ZN9Scheduler3putEP3CCB@plt
 342      E7800000 
 343              	.LVL29:
 344 01ec 6FF01FFC 		j	.L14
 345              		.cfi_endproc
 346              	.LFE39:
 348              		.align	2
 349              		.globl	_ZN3CCB12getThreadCntEv
 351              	_ZN3CCB12getThreadCntEv:
 352              	.LFB41:
  47:src/ccb.cpp   **** 
  48:src/ccb.cpp   **** int CCB::getThreadCnt() {
 353              		.loc 1 48 25 is_stmt 1
 354              		.cfi_startproc
 355 01f0 130101FF 		addi	sp,sp,-16
 356              		.cfi_def_cfa_offset 16
 357 01f4 23348100 		sd	s0,8(sp)
 358              		.cfi_offset 8, -8
 359 01f8 13040101 		addi	s0,sp,16
 360              		.cfi_def_cfa 8, 0
  49:src/ccb.cpp   ****     return threadCnt;
 361              		.loc 1 49 5
  50:src/ccb.cpp   **** }
 362              		.loc 1 50 1 is_stmt 0
 363 01fc 17050000 		lw	a0,.LANCHOR0+8
 363      03250500 
 364 0204 03348100 		ld	s0,8(sp)
 365              		.cfi_restore 8
 366              		.cfi_def_cfa 2, 16
 367 0208 13010101 		addi	sp,sp,16
 368              		.cfi_def_cfa_offset 0
 369 020c 67800000 		jr	ra
 370              		.cfi_endproc
 371              	.LFE41:
 373              		.align	2
 374              		.globl	_ZN3CCB10time_sleepEm
 376              	_ZN3CCB10time_sleepEm:
 377              	.LFB42:
  51:src/ccb.cpp   **** 
  52:src/ccb.cpp   **** int CCB::time_sleep(time_t) {
 378              		.loc 1 52 29 is_stmt 1
 379              		.cfi_startproc
GAS LISTING /tmp/cc6V5t34.s 			page 13


 380              	.LVL30:
 381 0210 130101FF 		addi	sp,sp,-16
 382              		.cfi_def_cfa_offset 16
 383 0214 23348100 		sd	s0,8(sp)
 384              		.cfi_offset 8, -8
 385 0218 13040101 		addi	s0,sp,16
 386              		.cfi_def_cfa 8, 0
  53:src/ccb.cpp   ****     return 0;
 387              		.loc 1 53 5
  54:src/ccb.cpp   **** }
 388              		.loc 1 54 1 is_stmt 0
 389 021c 13050000 		li	a0,0
 390              	.LVL31:
 391 0220 03348100 		ld	s0,8(sp)
 392              		.cfi_restore 8
 393              		.cfi_def_cfa 2, 16
 394 0224 13010101 		addi	sp,sp,16
 395              		.cfi_def_cfa_offset 0
 396 0228 67800000 		jr	ra
 397              		.cfi_endproc
 398              	.LFE42:
 400              		.globl	_ZN3CCB7runningE
 401              		.globl	_ZN3CCB9threadCntE
 402              		.bss
 403              		.align	3
 404              		.set	.LANCHOR0,. + 0
 407              	_ZN3CCB7runningE:
 408 0000 00000000 		.zero	8
 408      00000000 
 411              	_ZN3CCB9threadCntE:
 412 0008 00000000 		.zero	8
 412      00000000 
 413              		.text
 414              	.Letext0:
 415              		.file 4 "src/../h/../lib/hw.h"
 416              		.file 5 "src/../h/memoryAllocator.hpp"
 417              		.file 6 "src/../h/scheduler.hpp"
 3043              		.align	3
 3046              	DW.ref.__gxx_personality_v0:
 3047 0000 00000000 		.dword	__gxx_personality_v0
 3047      00000000 
 3048              		.ident	"GCC: (Ubuntu 9.4.0-1ubuntu1~20.04) 9.4.0"
 3049              		.section	.note.GNU-stack,"",@progbits
GAS LISTING /tmp/cc6V5t34.s 			page 14


DEFINED SYMBOLS
                            *ABS*:0000000000000000 ccb.cpp
     /tmp/cc6V5t34.s:9      .text:0000000000000000 _ZN3CCB13threadWrapperEv
     /tmp/cc6V5t34.s:13     .text:0000000000000000 .L0 
     /tmp/cc6V5t34.s:14     .text:0000000000000000 .L0 
     /tmp/cc6V5t34.s:15     .text:0000000000000004 .L0 
     /tmp/cc6V5t34.s:19     .text:0000000000000010 .L0 
     /tmp/cc6V5t34.s:20     .text:0000000000000010 .L0 
     /tmp/cc6V5t34.s:21     .text:0000000000000010 .L0 
     /tmp/cc6V5t34.s:23     .text:0000000000000014 .L0 
     /tmp/cc6V5t34.s:29     .text:0000000000000014 .L0 
     /tmp/cc6V5t34.s:30     .text:0000000000000014 .L0 
     /tmp/cc6V5t34.s:31     .text:0000000000000014 .L0 
     /tmp/cc6V5t34.s:41     .text:000000000000001c .L0 
     /tmp/cc6V5t34.s:42     .text:000000000000001c .L0 
     /tmp/cc6V5t34.s:45     .text:0000000000000024 .L0 
     /tmp/cc6V5t34.s:46     .text:0000000000000024 .L0 
     /tmp/cc6V5t34.s:50     .text:0000000000000034 .L0 
     /tmp/cc6V5t34.s:54     .text:000000000000003c .L0 
     /tmp/cc6V5t34.s:55     .text:000000000000003c .L0 
     /tmp/cc6V5t34.s:61     .text:0000000000000040 .L0 
     /tmp/cc6V5t34.s:62     .text:0000000000000040 .L0 
     /tmp/cc6V5t34.s:68     .text:0000000000000048 .L0 
     /tmp/cc6V5t34.s:69     .text:0000000000000048 .L0 
     /tmp/cc6V5t34.s:72     .text:0000000000000050 .L0 
     /tmp/cc6V5t34.s:73     .text:0000000000000050 .L0 
         src/ccb.cpp:44     .text:0000000000000054 .L0 
     /tmp/cc6V5t34.s:80     .text:0000000000000058 .L0 
         src/ccb.cpp:45     .text:0000000000000058 .L0 
     /tmp/cc6V5t34.s:86     .text:000000000000005c .L0 
     /tmp/cc6V5t34.s:87     .text:0000000000000060 .L0 
     /tmp/cc6V5t34.s:89     .text:0000000000000064 .L0 
     /tmp/cc6V5t34.s:90     .text:0000000000000064 .L0 
     /tmp/cc6V5t34.s:92     .text:0000000000000068 .L0 
     /tmp/cc6V5t34.s:94     .text:000000000000006c .L0 
     /tmp/cc6V5t34.s:96     .text:0000000000000070 .L0 
     /tmp/cc6V5t34.s:102    .text:0000000000000070 _ZN3CCB15createCoroutineEPFvPvES0_Pm
     /tmp/cc6V5t34.s:105    .text:0000000000000070 .L0 
     /tmp/cc6V5t34.s:3046   .data.rel.local.DW.ref.__gxx_personality_v0:0000000000000000 DW.ref.__gxx_personality_v0
     /tmp/cc6V5t34.s:109    .text:0000000000000070 .L0 
     /tmp/cc6V5t34.s:110    .text:0000000000000074 .L0 
     /tmp/cc6V5t34.s:117    .text:000000000000008c .L0 
     /tmp/cc6V5t34.s:118    .text:000000000000008c .L0 
     /tmp/cc6V5t34.s:119    .text:000000000000008c .L0 
     /tmp/cc6V5t34.s:120    .text:000000000000008c .L0 
     /tmp/cc6V5t34.s:121    .text:000000000000008c .L0 
     /tmp/cc6V5t34.s:122    .text:000000000000008c .L0 
     /tmp/cc6V5t34.s:124    .text:0000000000000090 .L0 
     /tmp/cc6V5t34.s:129    .text:000000000000009c .L0 
     /tmp/cc6V5t34.s:130    .text:000000000000009c .L0 
     /tmp/cc6V5t34.s:138    .text:00000000000000b0 .L0 
     /tmp/cc6V5t34.s:139    .text:00000000000000b0 .L0 
     /tmp/cc6V5t34.s:140    .text:00000000000000b0 .L0 
     /tmp/cc6V5t34.s:143    .text:00000000000000b8 .L0 
     /tmp/cc6V5t34.s:144    .text:00000000000000b8 .L0 
     /tmp/cc6V5t34.s:145    .text:00000000000000b8 .L0 
     /tmp/cc6V5t34.s:149    .text:00000000000000c4 .L0 
GAS LISTING /tmp/cc6V5t34.s 			page 15


     /tmp/cc6V5t34.s:150    .text:00000000000000c4 .L0 
     /tmp/cc6V5t34.s:163    .text:00000000000000d4 .L0 
     /tmp/cc6V5t34.s:167    .text:00000000000000e0 .L0 
     /tmp/cc6V5t34.s:171    .text:00000000000000ec .L0 
     /tmp/cc6V5t34.s:173    .text:00000000000000f0 .L0 
     /tmp/cc6V5t34.s:175    .text:00000000000000f4 .L0 
     /tmp/cc6V5t34.s:180    .text:00000000000000fc .L0 
     /tmp/cc6V5t34.s:183    .text:0000000000000104 .L0 
     /tmp/cc6V5t34.s:185    .text:0000000000000108 .L0 
     /tmp/cc6V5t34.s:186    .text:0000000000000108 .L0 
     /tmp/cc6V5t34.s:195    .text:0000000000000118 .L0 
     /tmp/cc6V5t34.s:199    .text:0000000000000120 .L0 
     /tmp/cc6V5t34.s:211    .text:000000000000012c .L0 
     /tmp/cc6V5t34.s:212    .text:000000000000012c .L0 
     /tmp/cc6V5t34.s:224    .text:0000000000000144 .L0 
     /tmp/cc6V5t34.s:226    .text:000000000000014c .L0 
     /tmp/cc6V5t34.s:228    .text:0000000000000150 .L0 
     /tmp/cc6V5t34.s:229    .text:0000000000000150 .L0 
     /tmp/cc6V5t34.s:231    .text:0000000000000154 .L0 
     /tmp/cc6V5t34.s:234    .text:0000000000000158 .L0 
     /tmp/cc6V5t34.s:236    .text:000000000000015c .L0 
     /tmp/cc6V5t34.s:239    .text:0000000000000160 .L0 
     /tmp/cc6V5t34.s:242    .text:0000000000000164 .L0 
     /tmp/cc6V5t34.s:244    .text:0000000000000168 .L0 
     /tmp/cc6V5t34.s:270    .text:0000000000000168 _ZN3CCB8dispatchEv
     /tmp/cc6V5t34.s:273    .text:0000000000000168 .L0 
     /tmp/cc6V5t34.s:274    .text:0000000000000168 .L0 
     /tmp/cc6V5t34.s:275    .text:000000000000016c .L0 
     /tmp/cc6V5t34.s:279    .text:0000000000000178 .L0 
     /tmp/cc6V5t34.s:280    .text:0000000000000178 .L0 
     /tmp/cc6V5t34.s:281    .text:0000000000000178 .L0 
     /tmp/cc6V5t34.s:283    .text:000000000000017c .L0 
     /tmp/cc6V5t34.s:285    .text:000000000000017c .L0 
     /tmp/cc6V5t34.s:286    .text:000000000000017c .L0 
     /tmp/cc6V5t34.s:291    .text:0000000000000184 .L0 
     /tmp/cc6V5t34.s:292    .text:0000000000000184 .L0 
     /tmp/cc6V5t34.s:293    .text:0000000000000184 .L0 
     /tmp/cc6V5t34.s:298    .text:0000000000000188 .L0 
     /tmp/cc6V5t34.s:300    .text:000000000000018c .L0 
     /tmp/cc6V5t34.s:301    .text:000000000000018c .L0 
     /tmp/cc6V5t34.s:306    .text:00000000000001a0 .L0 
     /tmp/cc6V5t34.s:307    .text:00000000000001a0 .L0 
     /tmp/cc6V5t34.s:312    .text:00000000000001ac .L0 
     /tmp/cc6V5t34.s:313    .text:00000000000001ac .L0 
     /tmp/cc6V5t34.s:316    .text:00000000000001b4 .L0 
     /tmp/cc6V5t34.s:318    .text:00000000000001bc .L0 
     /tmp/cc6V5t34.s:319    .text:00000000000001bc .L0 
     /tmp/cc6V5t34.s:324    .text:00000000000001cc .L0 
     /tmp/cc6V5t34.s:325    .text:00000000000001d0 .L0 
     /tmp/cc6V5t34.s:326    .text:00000000000001d0 .L0 
     /tmp/cc6V5t34.s:328    .text:00000000000001d4 .L0 
     /tmp/cc6V5t34.s:329    .text:00000000000001d4 .L0 
     /tmp/cc6V5t34.s:331    .text:00000000000001d8 .L0 
     /tmp/cc6V5t34.s:334    .text:00000000000001dc .L0 
     /tmp/cc6V5t34.s:338    .text:00000000000001e0 .L0 
     /tmp/cc6V5t34.s:340    .text:00000000000001e0 .L0 
     /tmp/cc6V5t34.s:341    .text:00000000000001e0 .L0 
GAS LISTING /tmp/cc6V5t34.s 			page 16


     /tmp/cc6V5t34.s:345    .text:00000000000001f0 .L0 
     /tmp/cc6V5t34.s:351    .text:00000000000001f0 _ZN3CCB12getThreadCntEv
     /tmp/cc6V5t34.s:354    .text:00000000000001f0 .L0 
     /tmp/cc6V5t34.s:355    .text:00000000000001f0 .L0 
     /tmp/cc6V5t34.s:356    .text:00000000000001f4 .L0 
     /tmp/cc6V5t34.s:358    .text:00000000000001f8 .L0 
     /tmp/cc6V5t34.s:360    .text:00000000000001fc .L0 
     /tmp/cc6V5t34.s:362    .text:00000000000001fc .L0 
     /tmp/cc6V5t34.s:363    .text:00000000000001fc .L0 
     /tmp/cc6V5t34.s:365    .text:0000000000000208 .L0 
     /tmp/cc6V5t34.s:366    .text:0000000000000208 .L0 
     /tmp/cc6V5t34.s:368    .text:000000000000020c .L0 
     /tmp/cc6V5t34.s:370    .text:0000000000000210 .L0 
     /tmp/cc6V5t34.s:376    .text:0000000000000210 _ZN3CCB10time_sleepEm
     /tmp/cc6V5t34.s:379    .text:0000000000000210 .L0 
     /tmp/cc6V5t34.s:381    .text:0000000000000210 .L0 
     /tmp/cc6V5t34.s:382    .text:0000000000000214 .L0 
     /tmp/cc6V5t34.s:384    .text:0000000000000218 .L0 
     /tmp/cc6V5t34.s:386    .text:000000000000021c .L0 
     /tmp/cc6V5t34.s:388    .text:000000000000021c .L0 
     /tmp/cc6V5t34.s:389    .text:000000000000021c .L0 
     /tmp/cc6V5t34.s:392    .text:0000000000000224 .L0 
     /tmp/cc6V5t34.s:393    .text:0000000000000224 .L0 
     /tmp/cc6V5t34.s:395    .text:0000000000000228 .L0 
     /tmp/cc6V5t34.s:397    .text:000000000000022c .L0 
     /tmp/cc6V5t34.s:407    .bss:0000000000000000 _ZN3CCB7runningE
     /tmp/cc6V5t34.s:411    .bss:0000000000000008 _ZN3CCB9threadCntE
     /tmp/cc6V5t34.s:404    .bss:0000000000000000 .LANCHOR0
     /tmp/cc6V5t34.s:418    .text:000000000000022c .L0 
     /tmp/cc6V5t34.s:46     .text:0000000000000024 .L0 
     /tmp/cc6V5t34.s:130    .text:000000000000009c .L0 
     /tmp/cc6V5t34.s:168    .text:00000000000000e4 .L0 
     /tmp/cc6V5t34.s:286    .text:000000000000017c .L0 
     /tmp/cc6V5t34.s:301    .text:000000000000018c .L0 
     /tmp/cc6V5t34.s:316    .text:00000000000001b4 .L0 
     /tmp/cc6V5t34.s:363    .text:00000000000001fc .L0 
     /tmp/cc6V5t34.s:193    .text:0000000000000118 .L8
     /tmp/cc6V5t34.s:197    .text:0000000000000120 .L9
     /tmp/cc6V5t34.s:220    .text:0000000000000144 .L3
     /tmp/cc6V5t34.s:169    .text:00000000000000ec .L4
     /tmp/cc6V5t34.s:178    .text:00000000000000fc .L5
     /tmp/cc6V5t34.s:337    .text:00000000000001e0 .L13
     /tmp/cc6V5t34.s:310    .text:00000000000001ac .L14
     /tmp/cc6V5t34.s:152    .text:00000000000000c8 .LEHB0
     /tmp/cc6V5t34.s:103    .text:0000000000000070 .LFB38
     /tmp/cc6V5t34.s:155    .text:00000000000000d0 .LEHE0
     /tmp/cc6V5t34.s:187    .text:000000000000010c .LEHB1
     /tmp/cc6V5t34.s:190    .text:0000000000000114 .LEHE1
     /tmp/cc6V5t34.s:203    .text:0000000000000128 .L10
     /tmp/cc6V5t34.s:216    .text:000000000000013c .LEHB2
     /tmp/cc6V5t34.s:219    .text:0000000000000144 .LEHE2
     /tmp/cc6V5t34.s:1517   .debug_abbrev:0000000000000000 .Ldebug_abbrev0
     /tmp/cc6V5t34.s:3002   .debug_str:000000000000061e .LASF110
     /tmp/cc6V5t34.s:2978   .debug_str:0000000000000560 .LASF111
     /tmp/cc6V5t34.s:2986   .debug_str:000000000000059b .LASF112
     /tmp/cc6V5t34.s:5      .text:0000000000000000 .Ltext0
     /tmp/cc6V5t34.s:414    .text:000000000000022c .Letext0
GAS LISTING /tmp/cc6V5t34.s 			page 17


     /tmp/cc6V5t34.s:2788   .debug_line:0000000000000000 .Ldebug_line0
     /tmp/cc6V5t34.s:2922   .debug_str:000000000000039f .LASF0
     /tmp/cc6V5t34.s:2942   .debug_str:0000000000000450 .LASF1
     /tmp/cc6V5t34.s:2910   .debug_str:000000000000034d .LASF2
     /tmp/cc6V5t34.s:2882   .debug_str:0000000000000243 .LASF4
     /tmp/cc6V5t34.s:2980   .debug_str:000000000000056c .LASF3
     /tmp/cc6V5t34.s:2814   .debug_str:0000000000000073 .LASF5
     /tmp/cc6V5t34.s:2846   .debug_str:0000000000000154 .LASF6
     /tmp/cc6V5t34.s:2944   .debug_str:0000000000000463 .LASF7
     /tmp/cc6V5t34.s:2920   .debug_str:000000000000038c .LASF8
     /tmp/cc6V5t34.s:3008   .debug_str:00000000000006fe .LASF9
     /tmp/cc6V5t34.s:2870   .debug_str:00000000000001e0 .LASF10
     /tmp/cc6V5t34.s:2950   .debug_str:000000000000048b .LASF11
     /tmp/cc6V5t34.s:3006   .debug_str:00000000000006ef .LASF12
     /tmp/cc6V5t34.s:2818   .debug_str:0000000000000086 .LASF13
     /tmp/cc6V5t34.s:2798   .debug_str:0000000000000027 .LASF14
     /tmp/cc6V5t34.s:2828   .debug_str:00000000000000e5 .LASF15
     /tmp/cc6V5t34.s:2970   .debug_str:000000000000051d .LASF16
     /tmp/cc6V5t34.s:2838   .debug_str:0000000000000116 .LASF17
     /tmp/cc6V5t34.s:2822   .debug_str:00000000000000af .LASF24
     /tmp/cc6V5t34.s:2796   .debug_str:000000000000001b .LASF28
     /tmp/cc6V5t34.s:3034   .debug_str:00000000000007ca .LASF18
     /tmp/cc6V5t34.s:2996   .debug_str:0000000000000600 .LASF19
     /tmp/cc6V5t34.s:2984   .debug_str:0000000000000591 .LASF20
     /tmp/cc6V5t34.s:2928   .debug_str:00000000000003bc .LASF22
     /tmp/cc6V5t34.s:2956   .debug_str:00000000000004b6 .LASF21
     /tmp/cc6V5t34.s:2938   .debug_str:0000000000000429 .LASF23
     /tmp/cc6V5t34.s:2854   .debug_str:0000000000000181 .LASF38
     /tmp/cc6V5t34.s:2894   .debug_str:0000000000000280 .LASF40
     /tmp/cc6V5t34.s:2790   .debug_str:0000000000000000 .LASF26
     /tmp/cc6V5t34.s:2948   .debug_str:0000000000000481 .LASF25
     /tmp/cc6V5t34.s:3014   .debug_str:000000000000073c .LASF27
     /tmp/cc6V5t34.s:2880   .debug_str:000000000000022f .LASF113
     /tmp/cc6V5t34.s:2934   .debug_str:00000000000003f9 .LASF114
     /tmp/cc6V5t34.s:2802   .debug_str:0000000000000040 .LASF115
     /tmp/cc6V5t34.s:2848   .debug_str:000000000000015b .LASF29
     /tmp/cc6V5t34.s:2844   .debug_str:000000000000014f .LASF30
     /tmp/cc6V5t34.s:3032   .debug_str:00000000000007be .LASF31
     /tmp/cc6V5t34.s:3018   .debug_str:0000000000000755 .LASF32
     /tmp/cc6V5t34.s:3036   .debug_str:00000000000007cf .LASF33
     /tmp/cc6V5t34.s:2962   .debug_str:00000000000004e0 .LASF116
     /tmp/cc6V5t34.s:3024   .debug_str:0000000000000786 .LASF117
     /tmp/cc6V5t34.s:2946   .debug_str:0000000000000476 .LASF43
     /tmp/cc6V5t34.s:2930   .debug_str:00000000000003dd .LASF45
     /tmp/cc6V5t34.s:2912   .debug_str:000000000000035b .LASF34
     /tmp/cc6V5t34.s:2968   .debug_str:0000000000000506 .LASF35
     /tmp/cc6V5t34.s:2926   .debug_str:00000000000003b3 .LASF58
     /tmp/cc6V5t34.s:2982   .debug_str:000000000000057e .LASF60
     /tmp/cc6V5t34.s:3022   .debug_str:0000000000000779 .LASF36
     /tmp/cc6V5t34.s:2808   .debug_str:000000000000005a .LASF37
     /tmp/cc6V5t34.s:2988   .debug_str:00000000000005b6 .LASF39
     /tmp/cc6V5t34.s:3004   .debug_str:00000000000006e2 .LASF41
     /tmp/cc6V5t34.s:2990   .debug_str:00000000000005c6 .LASF42
     /tmp/cc6V5t34.s:2936   .debug_str:0000000000000411 .LASF63
     /tmp/cc6V5t34.s:2972   .debug_str:0000000000000533 .LASF44
     /tmp/cc6V5t34.s:3012   .debug_str:0000000000000726 .LASF46
     /tmp/cc6V5t34.s:2964   .debug_str:00000000000004e5 .LASF118
GAS LISTING /tmp/cc6V5t34.s 			page 18


     /tmp/cc6V5t34.s:2888   .debug_str:0000000000000268 .LASF47
     /tmp/cc6V5t34.s:2832   .debug_str:00000000000000f6 .LASF48
     /tmp/cc6V5t34.s:2892   .debug_str:0000000000000278 .LASF49
     /tmp/cc6V5t34.s:2886   .debug_str:000000000000025f .LASF50
     /tmp/cc6V5t34.s:2834   .debug_str:00000000000000fc .LASF51
     /tmp/cc6V5t34.s:2898   .debug_str:00000000000002d4 .LASF119
     /tmp/cc6V5t34.s:2906   .debug_str:000000000000032e .LASF97
     /tmp/cc6V5t34.s:2820   .debug_str:0000000000000096 .LASF99
     /tmp/cc6V5t34.s:2974   .debug_str:000000000000053e .LASF52
     /tmp/cc6V5t34.s:2860   .debug_str:00000000000001a7 .LASF53
     /tmp/cc6V5t34.s:2940   .debug_str:000000000000044a .LASF54
     /tmp/cc6V5t34.s:2842   .debug_str:0000000000000140 .LASF120
     /tmp/cc6V5t34.s:2836   .debug_str:000000000000010a .LASF55
     /tmp/cc6V5t34.s:2900   .debug_str:00000000000002fc .LASF56
     /tmp/cc6V5t34.s:2816   .debug_str:000000000000007a .LASF57
     /tmp/cc6V5t34.s:2966   .debug_str:00000000000004fb .LASF59
     /tmp/cc6V5t34.s:3030   .debug_str:00000000000007a6 .LASF61
     /tmp/cc6V5t34.s:2800   .debug_str:0000000000000037 .LASF62
     /tmp/cc6V5t34.s:2992   .debug_str:00000000000005d3 .LASF64
     /tmp/cc6V5t34.s:2852   .debug_str:0000000000000178 .LASF65
     /tmp/cc6V5t34.s:2850   .debug_str:0000000000000163 .LASF66
     /tmp/cc6V5t34.s:2916   .debug_str:000000000000037a .LASF67
     /tmp/cc6V5t34.s:2958   .debug_str:00000000000004bf .LASF68
     /tmp/cc6V5t34.s:3000   .debug_str:0000000000000617 .LASF69
     /tmp/cc6V5t34.s:2868   .debug_str:00000000000001cd .LASF70
     /tmp/cc6V5t34.s:2864   .debug_str:00000000000001bf .LASF71
     /tmp/cc6V5t34.s:2840   .debug_str:000000000000012c .LASF72
     /tmp/cc6V5t34.s:2792   .debug_str:000000000000000c .LASF73
     /tmp/cc6V5t34.s:2874   .debug_str:0000000000000204 .LASF74
     /tmp/cc6V5t34.s:2856   .debug_str:000000000000018b .LASF75
     /tmp/cc6V5t34.s:3020   .debug_str:0000000000000765 .LASF76
     /tmp/cc6V5t34.s:2876   .debug_str:0000000000000218 .LASF77
     /tmp/cc6V5t34.s:2858   .debug_str:0000000000000193 .LASF78
     /tmp/cc6V5t34.s:2924   .debug_str:00000000000003ac .LASF79
     /tmp/cc6V5t34.s:3026   .debug_str:000000000000078e .LASF80
     /tmp/cc6V5t34.s:2810   .debug_str:0000000000000066 .LASF81
     /tmp/cc6V5t34.s:2862   .debug_str:00000000000001ac .LASF82
     /tmp/cc6V5t34.s:2866   .debug_str:00000000000001c7 .LASF83
     /tmp/cc6V5t34.s:2998   .debug_str:0000000000000605 .LASF84
     /tmp/cc6V5t34.s:2806   .debug_str:0000000000000054 .LASF85
     /tmp/cc6V5t34.s:3038   .debug_str:00000000000007f4 .LASF86
     /tmp/cc6V5t34.s:2918   .debug_str:0000000000000381 .LASF87
     /tmp/cc6V5t34.s:2976   .debug_str:0000000000000548 .LASF88
     /tmp/cc6V5t34.s:2890   .debug_str:000000000000026d .LASF89
     /tmp/cc6V5t34.s:2994   .debug_str:00000000000005e8 .LASF90
     /tmp/cc6V5t34.s:2826   .debug_str:00000000000000db .LASF91
     /tmp/cc6V5t34.s:2904   .debug_str:0000000000000318 .LASF92
     /tmp/cc6V5t34.s:2804   .debug_str:000000000000004a .LASF93
     /tmp/cc6V5t34.s:2872   .debug_str:00000000000001ee .LASF94
     /tmp/cc6V5t34.s:2902   .debug_str:0000000000000309 .LASF95
     /tmp/cc6V5t34.s:2824   .debug_str:00000000000000bf .LASF96
     /tmp/cc6V5t34.s:2884   .debug_str:000000000000024a .LASF98
     /tmp/cc6V5t34.s:2896   .debug_str:00000000000002b2 .LASF100
     /tmp/cc6V5t34.s:2914   .debug_str:0000000000000367 .LASF101
     /tmp/cc6V5t34.s:2908   .debug_str:000000000000033c .LASF102
     /tmp/cc6V5t34.s:377    .text:0000000000000210 .LFB42
     /tmp/cc6V5t34.s:398    .text:000000000000022c .LFE42
GAS LISTING /tmp/cc6V5t34.s 			page 19


     /tmp/cc6V5t34.s:3028   .debug_str:00000000000007a1 .LASF108
     /tmp/cc6V5t34.s:2554   .debug_loc:0000000000000000 .LLST14
     /tmp/cc6V5t34.s:352    .text:00000000000001f0 .LFB41
     /tmp/cc6V5t34.s:371    .text:0000000000000210 .LFE41
     /tmp/cc6V5t34.s:10     .text:0000000000000000 .LFB40
     /tmp/cc6V5t34.s:97     .text:0000000000000070 .LFE40
     /tmp/cc6V5t34.s:2932   .debug_str:00000000000003f4 .LASF103
     /tmp/cc6V5t34.s:26     .text:0000000000000014 .LBB15
     /tmp/cc6V5t34.s:39     .text:000000000000001c .LBE15
     /tmp/cc6V5t34.s:2568   .debug_loc:0000000000000039 .LLST0
     /tmp/cc6V5t34.s:57     .text:0000000000000040 .LBB17
     /tmp/cc6V5t34.s:66     .text:0000000000000048 .LBE17
     /tmp/cc6V5t34.s:2577   .debug_loc:000000000000005f .LLST1
     /tmp/cc6V5t34.s:2585   .debug_loc:0000000000000083 .LLST2
     /tmp/cc6V5t34.s:43     .text:0000000000000024 .LVL2
     /tmp/cc6V5t34.s:271    .text:0000000000000168 .LFB39
     /tmp/cc6V5t34.s:346    .text:00000000000001f0 .LFE39
     /tmp/cc6V5t34.s:2592   .debug_loc:00000000000000a6 .LLST12
     /tmp/cc6V5t34.s:289    .text:0000000000000184 .LBB25
     /tmp/cc6V5t34.s:296    .text:0000000000000188 .LBE25
     /tmp/cc6V5t34.s:2603   .debug_loc:00000000000000dc .LLST13
     /tmp/cc6V5t34.s:309    .text:00000000000001ac .LVL24
     /tmp/cc6V5t34.s:314    .text:00000000000001b4 .LVL25
     /tmp/cc6V5t34.s:322    .text:00000000000001cc .LVL26
     /tmp/cc6V5t34.s:343    .text:00000000000001ec .LVL29
     /tmp/cc6V5t34.s:245    .text:0000000000000168 .LFE38
     /tmp/cc6V5t34.s:2812   .debug_str:000000000000006d .LASF104
     /tmp/cc6V5t34.s:2610   .debug_loc:00000000000000ff .LLST3
     /tmp/cc6V5t34.s:3016   .debug_str:0000000000000750 .LASF105
     /tmp/cc6V5t34.s:2628   .debug_loc:000000000000014b .LLST4
     /tmp/cc6V5t34.s:2794   .debug_str:0000000000000014 .LASF106
     /tmp/cc6V5t34.s:2646   .debug_loc:0000000000000197 .LLST5
     /tmp/cc6V5t34.s:136    .text:00000000000000b0 .LBB19
     /tmp/cc6V5t34.s:159    .text:00000000000000d4 .LBE19
     /tmp/cc6V5t34.s:2685   .debug_loc:0000000000000234 .LLST6
     /tmp/cc6V5t34.s:154    .text:00000000000000d0 .LVL9
     /tmp/cc6V5t34.s:160    .text:00000000000000d4 .LBB21
     /tmp/cc6V5t34.s:207    .text:000000000000012c .LBE21
     /tmp/cc6V5t34.s:2694   .debug_loc:0000000000000259 .LLST7
     /tmp/cc6V5t34.s:2729   .debug_loc:00000000000002e3 .LLST8
     /tmp/cc6V5t34.s:2743   .debug_loc:000000000000031c .LLST9
     /tmp/cc6V5t34.s:2757   .debug_loc:0000000000000355 .LLST10
     /tmp/cc6V5t34.s:189    .text:0000000000000114 .LVL12
     /tmp/cc6V5t34.s:208    .text:000000000000012c .LBB23
     /tmp/cc6V5t34.s:222    .text:0000000000000144 .LBE23
     /tmp/cc6V5t34.s:2768   .debug_loc:000000000000038b .LLST11
     /tmp/cc6V5t34.s:214    .text:0000000000000138 .LVL17
     /tmp/cc6V5t34.s:218    .text:0000000000000144 .LVL18
     /tmp/cc6V5t34.s:2830   .debug_str:00000000000000f1 .LASF107
     /tmp/cc6V5t34.s:2954   .debug_str:00000000000004a0 .LASF121
     /tmp/cc6V5t34.s:2960   .debug_str:00000000000004d2 .LASF122
     /tmp/cc6V5t34.s:2952   .debug_str:000000000000049a .LASF109
     /tmp/cc6V5t34.s:2878   .debug_str:0000000000000220 .LASF123
     /tmp/cc6V5t34.s:3010   .debug_str:000000000000070e .LASF124
     /tmp/cc6V5t34.s:380    .text:0000000000000210 .LVL30
     /tmp/cc6V5t34.s:390    .text:0000000000000220 .LVL31
     /tmp/cc6V5t34.s:25     .text:0000000000000014 .LVL0
GAS LISTING /tmp/cc6V5t34.s 			page 20


     /tmp/cc6V5t34.s:36     .text:000000000000001c .LVL1
     /tmp/cc6V5t34.s:56     .text:0000000000000040 .LVL4
     /tmp/cc6V5t34.s:64     .text:0000000000000048 .LVL5
     /tmp/cc6V5t34.s:287    .text:0000000000000184 .LVL22
     /tmp/cc6V5t34.s:332    .text:00000000000001d8 .LVL27
     /tmp/cc6V5t34.s:336    .text:00000000000001e0 .LVL28
     /tmp/cc6V5t34.s:294    .text:0000000000000188 .LVL23
     /tmp/cc6V5t34.s:108    .text:0000000000000070 .LVL6
     /tmp/cc6V5t34.s:151    .text:00000000000000c8 .LVL8
     /tmp/cc6V5t34.s:237    .text:000000000000015c .LVL20
     /tmp/cc6V5t34.s:240    .text:0000000000000160 .LVL21
     /tmp/cc6V5t34.s:177    .text:00000000000000fc .LVL11
     /tmp/cc6V5t34.s:192    .text:0000000000000118 .LVL13
     /tmp/cc6V5t34.s:200    .text:0000000000000124 .LVL14
     /tmp/cc6V5t34.s:202    .text:0000000000000128 .LVL15
     /tmp/cc6V5t34.s:135    .text:00000000000000b0 .LVL7
     /tmp/cc6V5t34.s:157    .text:00000000000000d4 .LVL10
     /tmp/cc6V5t34.s:232    .text:0000000000000154 .LVL19
     /tmp/cc6V5t34.s:205    .text:000000000000012c .LVL16
     /tmp/cc6V5t34.s:419    .debug_info:0000000000000000 .Ldebug_info0
     /tmp/cc6V5t34.s:248    .gcc_except_table:0000000000000000 .LLSDA38

UNDEFINED SYMBOLS
_ZN5Riscv10popSppSpieEv
_ZN15memoryAllocator9mem_allocEm
_ZN9Scheduler3putEP3CCB
_ZN15memoryAllocator8mem_freeEPv
_Unwind_Resume
__gxx_personality_v0
_ZN9Scheduler3getEv
_ZN3CCB13contextSwitchEPNS_7ContextES1_
