GAS LISTING /tmp/ccqcCSyB.s 			page 1


   1              		.file	"syscall_c.cpp"
   2              		.option pic
   3              		.option norelax
   4              		.text
   5              	.Ltext0:
   6              		.align	2
   7              		.globl	_Z9mem_allocm
   9              	_Z9mem_allocm:
  10              	.LFB0:
  11              		.file 1 "src/syscall_c.cpp"
   1:src/syscall_c.cpp **** //
   2:src/syscall_c.cpp **** // Created by os on 5/8/24.
   3:src/syscall_c.cpp **** //
   4:src/syscall_c.cpp **** 
   5:src/syscall_c.cpp **** #include "../h/syscall_c.h"
   6:src/syscall_c.cpp **** 
   7:src/syscall_c.cpp **** void *mem_alloc(size_t size) {
  12              		.loc 1 7 30
  13              		.cfi_startproc
  14              	.LVL0:
  15 0000 130101FE 		addi	sp,sp,-32
  16              		.cfi_def_cfa_offset 32
  17 0004 233C8100 		sd	s0,24(sp)
  18              		.cfi_offset 8, -8
  19 0008 13040102 		addi	s0,sp,32
  20              		.cfi_def_cfa 8, 0
   8:src/syscall_c.cpp **** 
   9:src/syscall_c.cpp ****     uint64 volatile code = 0x01;
  21              		.loc 1 9 5
  22              		.loc 1 9 21 is_stmt 0
  23 000c 93071000 		li	a5,1
  24 0010 2334F4FE 		sd	a5,-24(s0)
  10:src/syscall_c.cpp **** 
  11:src/syscall_c.cpp ****     if(size < 0) return nullptr;
  25              		.loc 1 11 5 is_stmt 1
  12:src/syscall_c.cpp **** 
  13:src/syscall_c.cpp ****     uint64 volatile num_of_blocks = (size + sizeof(uint64) + sizeof(void*)) / MEM_BLOCK_SIZE;
  26              		.loc 1 13 5
  27              		.loc 1 13 60 is_stmt 0
  28 0014 93070501 		addi	a5,a0,16
  29              		.loc 1 13 77
  30 0018 93D76700 		srli	a5,a5,6
  31              		.loc 1 13 21
  32 001c 2330F4FE 		sd	a5,-32(s0)
  14:src/syscall_c.cpp ****     if(size + sizeof(void*) + sizeof(uint64) % MEM_BLOCK_SIZE) num_of_blocks++;
  33              		.loc 1 14 5 is_stmt 1
  34 0020 930700FF 		li	a5,-16
  35 0024 6308F500 		beq	a0,a5,.L2
  36              		.loc 1 14 64 discriminator 1
  37              		.loc 1 14 77 is_stmt 0 discriminator 1
  38 0028 833704FE 		ld	a5,-32(s0)
  39 002c 93871700 		addi	a5,a5,1
  40 0030 2330F4FE 		sd	a5,-32(s0)
  41              	.L2:
  15:src/syscall_c.cpp **** 
  16:src/syscall_c.cpp **** 
  17:src/syscall_c.cpp ****     __asm__ volatile("mv a0, %0" :  : "r" (code));
GAS LISTING /tmp/ccqcCSyB.s 			page 2


  42              		.loc 1 17 5 is_stmt 1
  43              		.loc 1 17 44 is_stmt 0
  44 0034 833784FE 		ld	a5,-24(s0)
  45              		.loc 1 17 50
  46              	#APP
  47              	# 17 "src/syscall_c.cpp" 1
  18              	    __asm__ volatile("mv a1, %0" :  : "r" (num_of_blocks));
  48              		mv a0, a5
  49              	# 0 "" 2
  50              		.loc 1 18 5 is_stmt 1
  51              		.loc 1 18 44 is_stmt 0
  52              	#NO_APP
  53 003c 833704FE 		ld	a5,-32(s0)
  54              		.loc 1 18 59
  55              	#APP
  56              	# 18 "src/syscall_c.cpp" 1
  19              	
  20:src/syscall_c.cpp ****     __asm__ volatile("ecall");
  57              		mv a1, a5
  58              	# 0 "" 2
  59              		.loc 1 20 5 is_stmt 1
  60              		.loc 1 20 30 is_stmt 0
  61              	# 20 "src/syscall_c.cpp" 1
  21              	
  22:src/syscall_c.cpp ****     uint64 ret;
  62              		ecall
  63              	# 0 "" 2
  64              		.loc 1 22 5 is_stmt 1
  23:src/syscall_c.cpp **** 
  24:src/syscall_c.cpp ****     __asm__ volatile("mv %0, a0" : "=r" (ret));
  65              		.loc 1 24 5
  66              		.loc 1 24 47 is_stmt 0
  67              	# 24 "src/syscall_c.cpp" 1
  25              	
  68              		mv a0, a0
  69              	# 0 "" 2
  70              	.LVL1:
  26:src/syscall_c.cpp ****     return (void*)ret;
  71              		.loc 1 26 5 is_stmt 1
  27:src/syscall_c.cpp **** }
  72              		.loc 1 27 1 is_stmt 0
  73              	#NO_APP
  74 004c 03348101 		ld	s0,24(sp)
  75              		.cfi_restore 8
  76              		.cfi_def_cfa 2, 32
  77 0050 13010102 		addi	sp,sp,32
  78              		.cfi_def_cfa_offset 0
  79 0054 67800000 		jr	ra
  80              		.cfi_endproc
  81              	.LFE0:
  83              		.align	2
  84              		.globl	_Z8mem_freePv
  86              	_Z8mem_freePv:
  87              	.LFB1:
  28:src/syscall_c.cpp **** 
  29:src/syscall_c.cpp **** int mem_free(void* addr) {
  88              		.loc 1 29 26 is_stmt 1
GAS LISTING /tmp/ccqcCSyB.s 			page 3


  89              		.cfi_startproc
  90              	.LVL2:
  91 0058 130101FE 		addi	sp,sp,-32
  92              		.cfi_def_cfa_offset 32
  93 005c 233C8100 		sd	s0,24(sp)
  94              		.cfi_offset 8, -8
  95 0060 13040102 		addi	s0,sp,32
  96              		.cfi_def_cfa 8, 0
  30:src/syscall_c.cpp **** 
  31:src/syscall_c.cpp ****     uint64 volatile code = 0x02;
  97              		.loc 1 31 5
  98              		.loc 1 31 21 is_stmt 0
  99 0064 93072000 		li	a5,2
 100 0068 2334F4FE 		sd	a5,-24(s0)
  32:src/syscall_c.cpp ****     uint64 volatile volatile_addr = (uint64)addr;
 101              		.loc 1 32 5 is_stmt 1
 102              		.loc 1 32 21 is_stmt 0
 103 006c 2330A4FE 		sd	a0,-32(s0)
  33:src/syscall_c.cpp ****     __asm__ volatile("mv a0, %0" :  : "r" (code));
 104              		.loc 1 33 5 is_stmt 1
 105              		.loc 1 33 44 is_stmt 0
 106 0070 833784FE 		ld	a5,-24(s0)
 107              		.loc 1 33 50
 108              	#APP
 109              	# 33 "src/syscall_c.cpp" 1
  34              	    __asm__ volatile("mv a1, %0" :  : "r" (volatile_addr));
 110              		mv a0, a5
 111              	# 0 "" 2
 112              		.loc 1 34 5 is_stmt 1
 113              		.loc 1 34 44 is_stmt 0
 114              	#NO_APP
 115 0078 833704FE 		ld	a5,-32(s0)
 116              		.loc 1 34 59
 117              	#APP
 118              	# 34 "src/syscall_c.cpp" 1
  35              	
  36:src/syscall_c.cpp ****     __asm__ volatile("ecall");
 119              		mv a1, a5
 120              	# 0 "" 2
 121              		.loc 1 36 5 is_stmt 1
 122              		.loc 1 36 30 is_stmt 0
 123              	# 36 "src/syscall_c.cpp" 1
  37              	
  38:src/syscall_c.cpp ****     uint64 ret;
 124              		ecall
 125              	# 0 "" 2
 126              		.loc 1 38 5 is_stmt 1
  39:src/syscall_c.cpp **** 
  40:src/syscall_c.cpp ****     __asm__ volatile("mv %0, a0" : "=r" (ret));
 127              		.loc 1 40 5
 128              		.loc 1 40 47 is_stmt 0
 129              	# 40 "src/syscall_c.cpp" 1
  41              	    return ret;
 130              		mv a0, a0
 131              	# 0 "" 2
 132              	.LVL3:
 133              		.loc 1 41 5 is_stmt 1
GAS LISTING /tmp/ccqcCSyB.s 			page 4


  42:src/syscall_c.cpp **** }
 134              		.loc 1 42 1 is_stmt 0
 135              	#NO_APP
 136 0088 1B050500 		sext.w	a0,a0
 137              	.LVL4:
 138 008c 03348101 		ld	s0,24(sp)
 139              		.cfi_restore 8
 140              		.cfi_def_cfa 2, 32
 141 0090 13010102 		addi	sp,sp,32
 142              		.cfi_def_cfa_offset 0
 143              	.LVL5:
 144 0094 67800000 		jr	ra
 145              		.cfi_endproc
 146              	.LFE1:
 148              		.align	2
 149              		.globl	_Z13thread_createPP7_threadPFvPvES2_
 151              	_Z13thread_createPP7_threadPFvPvES2_:
 152              	.LFB2:
  43:src/syscall_c.cpp **** 
  44:src/syscall_c.cpp **** int thread_create(thread_t *handle, void (*start_routine)(void *), void *arg) {
 153              		.loc 1 44 79 is_stmt 1
 154              		.cfi_startproc
 155              	.LVL6:
 156 0098 130101FC 		addi	sp,sp,-64
 157              		.cfi_def_cfa_offset 64
 158 009c 233C1102 		sd	ra,56(sp)
 159 00a0 23388102 		sd	s0,48(sp)
 160 00a4 23349102 		sd	s1,40(sp)
 161 00a8 23302103 		sd	s2,32(sp)
 162 00ac 233C3101 		sd	s3,24(sp)
 163              		.cfi_offset 1, -8
 164              		.cfi_offset 8, -16
 165              		.cfi_offset 9, -24
 166              		.cfi_offset 18, -32
 167              		.cfi_offset 19, -40
 168 00b0 13040104 		addi	s0,sp,64
 169              		.cfi_def_cfa 8, 0
 170 00b4 93090500 		mv	s3,a0
 171 00b8 13890500 		mv	s2,a1
 172 00bc 93040600 		mv	s1,a2
  45:src/syscall_c.cpp ****     void* volatile stack_space = mem_alloc(DEFAULT_STACK_SIZE * sizeof(uint64));
 173              		.loc 1 45 5
 174              		.loc 1 45 43 is_stmt 0
 175 00c0 37850000 		li	a0,32768
 176              	.LVL7:
 177 00c4 97000000 		call	_Z9mem_allocm
 177      E7800000 
 178              	.LVL8:
 179              		.loc 1 45 79
 180 00cc 2334A4FC 		sd	a0,-56(s0)
  46:src/syscall_c.cpp **** 
  47:src/syscall_c.cpp ****     uint64 volatile code = 0x11;
 181              		.loc 1 47 5 is_stmt 1
 182              		.loc 1 47 21 is_stmt 0
 183 00d0 93071001 		li	a5,17
 184 00d4 2330F4FC 		sd	a5,-64(s0)
  48:src/syscall_c.cpp ****     __asm__ volatile("mv a0, %0" :  : "r" (code));
GAS LISTING /tmp/ccqcCSyB.s 			page 5


 185              		.loc 1 48 5 is_stmt 1
 186              		.loc 1 48 44 is_stmt 0
 187 00d8 833704FC 		ld	a5,-64(s0)
 188              		.loc 1 48 50
 189              	#APP
 190              	# 48 "src/syscall_c.cpp" 1
  49              	    __asm__ volatile("mv a1, %0" :  : "r" (handle));
 191              		mv a0, a5
 192              	# 0 "" 2
 193              		.loc 1 49 5 is_stmt 1
 194              		.loc 1 49 52 is_stmt 0
 195              	# 49 "src/syscall_c.cpp" 1
  50              	    __asm__ volatile("mv a2, %0" :  : "r" (start_routine));
 196              		mv a1, s3
 197              	# 0 "" 2
 198              		.loc 1 50 5 is_stmt 1
 199              		.loc 1 50 59 is_stmt 0
 200              	# 50 "src/syscall_c.cpp" 1
  51              	    __asm__ volatile("mv a3, %0" :  : "r" (arg));
 201              		mv a2, s2
 202              	# 0 "" 2
 203              		.loc 1 51 5 is_stmt 1
 204              		.loc 1 51 49 is_stmt 0
 205              	# 51 "src/syscall_c.cpp" 1
  52              	    __asm__ volatile("mv a4, %0" :  : "r" ((uint64)stack_space));
 206              		mv a3, s1
 207              	# 0 "" 2
 208              		.loc 1 52 5 is_stmt 1
 209              		.loc 1 52 65 is_stmt 0
 210              	#NO_APP
 211 00ec 833784FC 		ld	a5,-56(s0)
 212              	#APP
 213              	# 52 "src/syscall_c.cpp" 1
  53              	
  54:src/syscall_c.cpp ****     __asm__ volatile("ecall");
 214              		mv a4, a5
 215              	# 0 "" 2
 216              		.loc 1 54 5 is_stmt 1
 217              		.loc 1 54 30 is_stmt 0
 218              	# 54 "src/syscall_c.cpp" 1
  55              	
  56:src/syscall_c.cpp ****     uint64 ret;
 219              		ecall
 220              	# 0 "" 2
 221              		.loc 1 56 5 is_stmt 1
  57:src/syscall_c.cpp ****     __asm__ volatile("mv %0, a0" : "=r" (ret));
 222              		.loc 1 57 5
 223              		.loc 1 57 47 is_stmt 0
 224              	# 57 "src/syscall_c.cpp" 1
  58              	    return ret;
 225              		mv a0, a0
 226              	# 0 "" 2
 227              	.LVL9:
 228              		.loc 1 58 5 is_stmt 1
  59:src/syscall_c.cpp **** }
 229              		.loc 1 59 1 is_stmt 0
 230              	#NO_APP
GAS LISTING /tmp/ccqcCSyB.s 			page 6


 231 00fc 1B050500 		sext.w	a0,a0
 232              	.LVL10:
 233 0100 83308103 		ld	ra,56(sp)
 234              		.cfi_restore 1
 235 0104 03340103 		ld	s0,48(sp)
 236              		.cfi_restore 8
 237              		.cfi_def_cfa 2, 64
 238 0108 83348102 		ld	s1,40(sp)
 239              		.cfi_restore 9
 240              	.LVL11:
 241 010c 03390102 		ld	s2,32(sp)
 242              		.cfi_restore 18
 243              	.LVL12:
 244 0110 83398101 		ld	s3,24(sp)
 245              		.cfi_restore 19
 246              	.LVL13:
 247 0114 13010104 		addi	sp,sp,64
 248              		.cfi_def_cfa_offset 0
 249 0118 67800000 		jr	ra
 250              		.cfi_endproc
 251              	.LFE2:
 253              		.align	2
 254              		.globl	_Z11thread_exitv
 256              	_Z11thread_exitv:
 257              	.LFB3:
  60:src/syscall_c.cpp **** 
  61:src/syscall_c.cpp **** int thread_exit (){
 258              		.loc 1 61 19 is_stmt 1
 259              		.cfi_startproc
 260 011c 130101FE 		addi	sp,sp,-32
 261              		.cfi_def_cfa_offset 32
 262 0120 233C8100 		sd	s0,24(sp)
 263              		.cfi_offset 8, -8
 264 0124 13040102 		addi	s0,sp,32
 265              		.cfi_def_cfa 8, 0
  62:src/syscall_c.cpp ****     uint64 volatile code = 0x12;
 266              		.loc 1 62 5
 267              		.loc 1 62 21 is_stmt 0
 268 0128 93072001 		li	a5,18
 269 012c 2334F4FE 		sd	a5,-24(s0)
  63:src/syscall_c.cpp ****     __asm__ volatile("mv a0, %0" :  : "r" (code));
 270              		.loc 1 63 5 is_stmt 1
 271              		.loc 1 63 44 is_stmt 0
 272 0130 833784FE 		ld	a5,-24(s0)
 273              		.loc 1 63 50
 274              	#APP
 275              	# 63 "src/syscall_c.cpp" 1
  64              	
  65:src/syscall_c.cpp ****     __asm__ volatile("ecall");
 276              		mv a0, a5
 277              	# 0 "" 2
 278              		.loc 1 65 5 is_stmt 1
 279              		.loc 1 65 30 is_stmt 0
 280              	# 65 "src/syscall_c.cpp" 1
  66              	
  67:src/syscall_c.cpp ****     uint64 ret;
 281              		ecall
GAS LISTING /tmp/ccqcCSyB.s 			page 7


 282              	# 0 "" 2
 283              		.loc 1 67 5 is_stmt 1
  68:src/syscall_c.cpp ****     __asm__ volatile("mv %0, a0" : "=r" (ret));
 284              		.loc 1 68 5
 285              		.loc 1 68 47 is_stmt 0
 286              	# 68 "src/syscall_c.cpp" 1
  69              	    return ret;
 287              		mv a0, a0
 288              	# 0 "" 2
 289              	.LVL14:
 290              		.loc 1 69 5 is_stmt 1
  70:src/syscall_c.cpp **** }
 291              		.loc 1 70 1 is_stmt 0
 292              	#NO_APP
 293 0140 1B050500 		sext.w	a0,a0
 294              	.LVL15:
 295 0144 03348101 		ld	s0,24(sp)
 296              		.cfi_restore 8
 297              		.cfi_def_cfa 2, 32
 298 0148 13010102 		addi	sp,sp,32
 299              		.cfi_def_cfa_offset 0
 300 014c 67800000 		jr	ra
 301              		.cfi_endproc
 302              	.LFE3:
 304              		.align	2
 305              		.globl	_Z15thread_dispatchv
 307              	_Z15thread_dispatchv:
 308              	.LFB4:
  71:src/syscall_c.cpp **** 
  72:src/syscall_c.cpp **** void thread_dispatch (){
 309              		.loc 1 72 24 is_stmt 1
 310              		.cfi_startproc
 311 0150 130101FE 		addi	sp,sp,-32
 312              		.cfi_def_cfa_offset 32
 313 0154 233C8100 		sd	s0,24(sp)
 314              		.cfi_offset 8, -8
 315 0158 13040102 		addi	s0,sp,32
 316              		.cfi_def_cfa 8, 0
  73:src/syscall_c.cpp **** 
  74:src/syscall_c.cpp ****     uint64 volatile code = 0x13;
 317              		.loc 1 74 5
 318              		.loc 1 74 21 is_stmt 0
 319 015c 93073001 		li	a5,19
 320 0160 2334F4FE 		sd	a5,-24(s0)
  75:src/syscall_c.cpp ****     __asm__ volatile("mv a0, %0" :  : "r" (code));
 321              		.loc 1 75 5 is_stmt 1
 322              		.loc 1 75 44 is_stmt 0
 323 0164 833784FE 		ld	a5,-24(s0)
 324              		.loc 1 75 50
 325              	#APP
 326              	# 75 "src/syscall_c.cpp" 1
  76              	    __asm__ volatile("ecall");
 327              		mv a0, a5
 328              	# 0 "" 2
 329              		.loc 1 76 5 is_stmt 1
 330              		.loc 1 76 30 is_stmt 0
 331              	# 76 "src/syscall_c.cpp" 1
GAS LISTING /tmp/ccqcCSyB.s 			page 8


  77              	}
 332              		ecall
 333              	# 0 "" 2
 334              		.loc 1 77 1
 335              	#NO_APP
 336 0170 03348101 		ld	s0,24(sp)
 337              		.cfi_restore 8
 338              		.cfi_def_cfa 2, 32
 339 0174 13010102 		addi	sp,sp,32
 340              		.cfi_def_cfa_offset 0
 341 0178 67800000 		jr	ra
 342              		.cfi_endproc
 343              	.LFE4:
 345              		.align	2
 346              		.globl	_Z8sem_openPP4_semj
 348              	_Z8sem_openPP4_semj:
 349              	.LFB5:
  78:src/syscall_c.cpp **** 
  79:src/syscall_c.cpp **** 
  80:src/syscall_c.cpp **** 
  81:src/syscall_c.cpp **** int sem_open (sem_t* handle, unsigned init){
 350              		.loc 1 81 44 is_stmt 1
 351              		.cfi_startproc
 352              	.LVL16:
 353 017c 130101FD 		addi	sp,sp,-48
 354              		.cfi_def_cfa_offset 48
 355 0180 23348102 		sd	s0,40(sp)
 356              		.cfi_offset 8, -8
 357 0184 13040103 		addi	s0,sp,48
 358              		.cfi_def_cfa 8, 0
  82:src/syscall_c.cpp **** 
  83:src/syscall_c.cpp ****     uint64 volatile volatile_handle = (uint64)handle;
 359              		.loc 1 83 5
 360              		.loc 1 83 21 is_stmt 0
 361 0188 2334A4FE 		sd	a0,-24(s0)
  84:src/syscall_c.cpp ****     uint64 volatile volatile_init = init;
 362              		.loc 1 84 5 is_stmt 1
 363              		.loc 1 84 37 is_stmt 0
 364 018c 93950502 		slli	a1,a1,32
 365              	.LVL17:
 366 0190 93D50502 		srli	a1,a1,32
 367              		.loc 1 84 21
 368 0194 2330B4FE 		sd	a1,-32(s0)
  85:src/syscall_c.cpp ****     uint64 volatile code = 0x21;
 369              		.loc 1 85 5 is_stmt 1
 370              		.loc 1 85 21 is_stmt 0
 371 0198 93071002 		li	a5,33
 372 019c 233CF4FC 		sd	a5,-40(s0)
  86:src/syscall_c.cpp **** 
  87:src/syscall_c.cpp ****     __asm__ volatile("mv a0, %0" :  : "r" (code));
 373              		.loc 1 87 5 is_stmt 1
 374              		.loc 1 87 44 is_stmt 0
 375 01a0 833784FD 		ld	a5,-40(s0)
 376              		.loc 1 87 50
 377              	#APP
 378              	# 87 "src/syscall_c.cpp" 1
  88              	    __asm__ volatile("mv a1, %0" :  : "r" (volatile_handle));
GAS LISTING /tmp/ccqcCSyB.s 			page 9


 379              		mv a0, a5
 380              	# 0 "" 2
 381              		.loc 1 88 5 is_stmt 1
 382              		.loc 1 88 44 is_stmt 0
 383              	#NO_APP
 384 01a8 833784FE 		ld	a5,-24(s0)
 385              		.loc 1 88 61
 386              	#APP
 387              	# 88 "src/syscall_c.cpp" 1
  89              	    __asm__ volatile("mv a2, %0" :  : "r" (volatile_init));
 388              		mv a1, a5
 389              	# 0 "" 2
 390              		.loc 1 89 5 is_stmt 1
 391              		.loc 1 89 44 is_stmt 0
 392              	#NO_APP
 393 01b0 833704FE 		ld	a5,-32(s0)
 394              		.loc 1 89 59
 395              	#APP
 396              	# 89 "src/syscall_c.cpp" 1
  90              	
  91:src/syscall_c.cpp ****     __asm__ volatile("ecall");
 397              		mv a2, a5
 398              	# 0 "" 2
 399              		.loc 1 91 5 is_stmt 1
 400              		.loc 1 91 30 is_stmt 0
 401              	# 91 "src/syscall_c.cpp" 1
  92              	
  93:src/syscall_c.cpp ****     uint64 ret;
 402              		ecall
 403              	# 0 "" 2
 404              		.loc 1 93 5 is_stmt 1
  94:src/syscall_c.cpp **** 
  95:src/syscall_c.cpp ****     __asm__ volatile("mv %0, a0" : "=r" (ret));
 405              		.loc 1 95 5
 406              		.loc 1 95 47 is_stmt 0
 407              	# 95 "src/syscall_c.cpp" 1
  96              	    return ret;
 408              		mv a0, a0
 409              	# 0 "" 2
 410              	.LVL18:
 411              		.loc 1 96 5 is_stmt 1
  97:src/syscall_c.cpp **** 
  98:src/syscall_c.cpp **** }
 412              		.loc 1 98 1 is_stmt 0
 413              	#NO_APP
 414 01c0 1B050500 		sext.w	a0,a0
 415              	.LVL19:
 416 01c4 03348102 		ld	s0,40(sp)
 417              		.cfi_restore 8
 418              		.cfi_def_cfa 2, 48
 419 01c8 13010103 		addi	sp,sp,48
 420              		.cfi_def_cfa_offset 0
 421 01cc 67800000 		jr	ra
 422              		.cfi_endproc
 423              	.LFE5:
 425              		.align	2
 426              		.globl	_Z9sem_closeP4_sem
GAS LISTING /tmp/ccqcCSyB.s 			page 10


 428              	_Z9sem_closeP4_sem:
 429              	.LFB6:
  99:src/syscall_c.cpp **** 
 100:src/syscall_c.cpp **** int sem_close (sem_t handle){
 430              		.loc 1 100 29 is_stmt 1
 431              		.cfi_startproc
 432              	.LVL20:
 433 01d0 130101FE 		addi	sp,sp,-32
 434              		.cfi_def_cfa_offset 32
 435 01d4 233C8100 		sd	s0,24(sp)
 436              		.cfi_offset 8, -8
 437 01d8 13040102 		addi	s0,sp,32
 438              		.cfi_def_cfa 8, 0
 101:src/syscall_c.cpp **** 
 102:src/syscall_c.cpp ****     uint64 volatile code = 0x22;
 439              		.loc 1 102 5
 440              		.loc 1 102 21 is_stmt 0
 441 01dc 93072002 		li	a5,34
 442 01e0 2334F4FE 		sd	a5,-24(s0)
 103:src/syscall_c.cpp ****     uint64 volatile volatile_handle = (uint64)handle;
 443              		.loc 1 103 5 is_stmt 1
 444              		.loc 1 103 21 is_stmt 0
 445 01e4 2330A4FE 		sd	a0,-32(s0)
 104:src/syscall_c.cpp ****     __asm__ volatile("mv a0, %0" :  : "r" (code));
 446              		.loc 1 104 5 is_stmt 1
 447              		.loc 1 104 44 is_stmt 0
 448 01e8 833784FE 		ld	a5,-24(s0)
 449              		.loc 1 104 50
 450              	#APP
 451              	# 104 "src/syscall_c.cpp" 1
 105              	    __asm__ volatile("mv a1, %0" :  : "r" (volatile_handle));
 452              		mv a0, a5
 453              	# 0 "" 2
 454              		.loc 1 105 5 is_stmt 1
 455              		.loc 1 105 44 is_stmt 0
 456              	#NO_APP
 457 01f0 833704FE 		ld	a5,-32(s0)
 458              		.loc 1 105 61
 459              	#APP
 460              	# 105 "src/syscall_c.cpp" 1
 106              	
 107:src/syscall_c.cpp ****     __asm__ volatile("ecall");
 461              		mv a1, a5
 462              	# 0 "" 2
 463              		.loc 1 107 5 is_stmt 1
 464              		.loc 1 107 30 is_stmt 0
 465              	# 107 "src/syscall_c.cpp" 1
 108              	
 109:src/syscall_c.cpp ****     uint64 ret;
 466              		ecall
 467              	# 0 "" 2
 468              		.loc 1 109 5 is_stmt 1
 110:src/syscall_c.cpp ****     __asm__ volatile("mv %0, a0" : "=r" (ret));
 469              		.loc 1 110 5
 470              		.loc 1 110 47 is_stmt 0
 471              	# 110 "src/syscall_c.cpp" 1
 111              	    return ret;
GAS LISTING /tmp/ccqcCSyB.s 			page 11


 472              		mv a0, a0
 473              	# 0 "" 2
 474              	.LVL21:
 475              		.loc 1 111 5 is_stmt 1
 112:src/syscall_c.cpp **** 
 113:src/syscall_c.cpp **** }
 476              		.loc 1 113 1 is_stmt 0
 477              	#NO_APP
 478 0200 1B050500 		sext.w	a0,a0
 479              	.LVL22:
 480 0204 03348101 		ld	s0,24(sp)
 481              		.cfi_restore 8
 482              		.cfi_def_cfa 2, 32
 483 0208 13010102 		addi	sp,sp,32
 484              		.cfi_def_cfa_offset 0
 485              	.LVL23:
 486 020c 67800000 		jr	ra
 487              		.cfi_endproc
 488              	.LFE6:
 490              		.align	2
 491              		.globl	_Z8sem_waitP4_sem
 493              	_Z8sem_waitP4_sem:
 494              	.LFB7:
 114:src/syscall_c.cpp **** 
 115:src/syscall_c.cpp **** int sem_wait (sem_t id){
 495              		.loc 1 115 24 is_stmt 1
 496              		.cfi_startproc
 497              	.LVL24:
 498 0210 130101FE 		addi	sp,sp,-32
 499              		.cfi_def_cfa_offset 32
 500 0214 233C8100 		sd	s0,24(sp)
 501              		.cfi_offset 8, -8
 502 0218 13040102 		addi	s0,sp,32
 503              		.cfi_def_cfa 8, 0
 116:src/syscall_c.cpp **** 
 117:src/syscall_c.cpp ****     uint64 volatile code = 0x23;
 504              		.loc 1 117 5
 505              		.loc 1 117 21 is_stmt 0
 506 021c 93073002 		li	a5,35
 507 0220 2334F4FE 		sd	a5,-24(s0)
 118:src/syscall_c.cpp ****     uint64 volatile volatile_id = (uint64)id;
 508              		.loc 1 118 5 is_stmt 1
 509              		.loc 1 118 21 is_stmt 0
 510 0224 2330A4FE 		sd	a0,-32(s0)
 119:src/syscall_c.cpp ****     __asm__ volatile("mv a0, %0" :  : "r" (code));
 511              		.loc 1 119 5 is_stmt 1
 512              		.loc 1 119 44 is_stmt 0
 513 0228 833784FE 		ld	a5,-24(s0)
 514              		.loc 1 119 50
 515              	#APP
 516              	# 119 "src/syscall_c.cpp" 1
 120              	    __asm__ volatile("mv a1, %0" :  : "r" (volatile_id));
 517              		mv a0, a5
 518              	# 0 "" 2
 519              		.loc 1 120 5 is_stmt 1
 520              		.loc 1 120 44 is_stmt 0
 521              	#NO_APP
GAS LISTING /tmp/ccqcCSyB.s 			page 12


 522 0230 833704FE 		ld	a5,-32(s0)
 523              		.loc 1 120 57
 524              	#APP
 525              	# 120 "src/syscall_c.cpp" 1
 121              	
 122:src/syscall_c.cpp ****     __asm__ volatile("ecall");
 526              		mv a1, a5
 527              	# 0 "" 2
 528              		.loc 1 122 5 is_stmt 1
 529              		.loc 1 122 30 is_stmt 0
 530              	# 122 "src/syscall_c.cpp" 1
 123              	
 124:src/syscall_c.cpp ****     uint64 ret;
 531              		ecall
 532              	# 0 "" 2
 533              		.loc 1 124 5 is_stmt 1
 125:src/syscall_c.cpp **** 
 126:src/syscall_c.cpp ****     __asm__ volatile("mv %0, a0" : "=r" (ret));
 534              		.loc 1 126 5
 535              		.loc 1 126 47 is_stmt 0
 536              	# 126 "src/syscall_c.cpp" 1
 127              	    return ret;
 537              		mv a0, a0
 538              	# 0 "" 2
 539              	.LVL25:
 540              		.loc 1 127 5 is_stmt 1
 128:src/syscall_c.cpp **** 
 129:src/syscall_c.cpp **** }
 541              		.loc 1 129 1 is_stmt 0
 542              	#NO_APP
 543 0240 1B050500 		sext.w	a0,a0
 544              	.LVL26:
 545 0244 03348101 		ld	s0,24(sp)
 546              		.cfi_restore 8
 547              		.cfi_def_cfa 2, 32
 548 0248 13010102 		addi	sp,sp,32
 549              		.cfi_def_cfa_offset 0
 550              	.LVL27:
 551 024c 67800000 		jr	ra
 552              		.cfi_endproc
 553              	.LFE7:
 555              		.align	2
 556              		.globl	_Z10sem_signalP4_sem
 558              	_Z10sem_signalP4_sem:
 559              	.LFB8:
 130:src/syscall_c.cpp **** 
 131:src/syscall_c.cpp **** int sem_signal (sem_t id){
 560              		.loc 1 131 26 is_stmt 1
 561              		.cfi_startproc
 562              	.LVL28:
 563 0250 130101FE 		addi	sp,sp,-32
 564              		.cfi_def_cfa_offset 32
 565 0254 233C8100 		sd	s0,24(sp)
 566              		.cfi_offset 8, -8
 567 0258 13040102 		addi	s0,sp,32
 568              		.cfi_def_cfa 8, 0
 132:src/syscall_c.cpp ****     uint64 volatile code = 0x24;
GAS LISTING /tmp/ccqcCSyB.s 			page 13


 569              		.loc 1 132 5
 570              		.loc 1 132 21 is_stmt 0
 571 025c 93074002 		li	a5,36
 572 0260 2334F4FE 		sd	a5,-24(s0)
 133:src/syscall_c.cpp ****     uint64 volatile volatile_id = (uint64)id;
 573              		.loc 1 133 5 is_stmt 1
 574              		.loc 1 133 21 is_stmt 0
 575 0264 2330A4FE 		sd	a0,-32(s0)
 134:src/syscall_c.cpp ****     __asm__ volatile("mv a0, %0" :  : "r" (code));
 576              		.loc 1 134 5 is_stmt 1
 577              		.loc 1 134 44 is_stmt 0
 578 0268 833784FE 		ld	a5,-24(s0)
 579              		.loc 1 134 50
 580              	#APP
 581              	# 134 "src/syscall_c.cpp" 1
 135              	    __asm__ volatile("mv a1, %0" :  : "r" (volatile_id));
 582              		mv a0, a5
 583              	# 0 "" 2
 584              		.loc 1 135 5 is_stmt 1
 585              		.loc 1 135 44 is_stmt 0
 586              	#NO_APP
 587 0270 833704FE 		ld	a5,-32(s0)
 588              		.loc 1 135 57
 589              	#APP
 590              	# 135 "src/syscall_c.cpp" 1
 136              	
 137:src/syscall_c.cpp ****     __asm__ volatile("ecall");
 591              		mv a1, a5
 592              	# 0 "" 2
 593              		.loc 1 137 5 is_stmt 1
 594              		.loc 1 137 30 is_stmt 0
 595              	# 137 "src/syscall_c.cpp" 1
 138              	
 139:src/syscall_c.cpp ****     uint64 ret;
 596              		ecall
 597              	# 0 "" 2
 598              		.loc 1 139 5 is_stmt 1
 140:src/syscall_c.cpp **** 
 141:src/syscall_c.cpp ****     __asm__ volatile("mv %0, a0" : "=r" (ret));
 599              		.loc 1 141 5
 600              		.loc 1 141 47 is_stmt 0
 601              	# 141 "src/syscall_c.cpp" 1
 142              	    return ret;
 602              		mv a0, a0
 603              	# 0 "" 2
 604              	.LVL29:
 605              		.loc 1 142 5 is_stmt 1
 143:src/syscall_c.cpp **** 
 144:src/syscall_c.cpp **** }
 606              		.loc 1 144 1 is_stmt 0
 607              	#NO_APP
 608 0280 1B050500 		sext.w	a0,a0
 609              	.LVL30:
 610 0284 03348101 		ld	s0,24(sp)
 611              		.cfi_restore 8
 612              		.cfi_def_cfa 2, 32
 613 0288 13010102 		addi	sp,sp,32
GAS LISTING /tmp/ccqcCSyB.s 			page 14


 614              		.cfi_def_cfa_offset 0
 615              	.LVL31:
 616 028c 67800000 		jr	ra
 617              		.cfi_endproc
 618              	.LFE8:
 620              		.align	2
 621              		.globl	_Z11sem_trywaitP4_sem
 623              	_Z11sem_trywaitP4_sem:
 624              	.LFB9:
 145:src/syscall_c.cpp **** 
 146:src/syscall_c.cpp **** int sem_trywait(sem_t id){
 625              		.loc 1 146 26 is_stmt 1
 626              		.cfi_startproc
 627              	.LVL32:
 628 0290 130101FE 		addi	sp,sp,-32
 629              		.cfi_def_cfa_offset 32
 630 0294 233C8100 		sd	s0,24(sp)
 631              		.cfi_offset 8, -8
 632 0298 13040102 		addi	s0,sp,32
 633              		.cfi_def_cfa 8, 0
 147:src/syscall_c.cpp **** 
 148:src/syscall_c.cpp ****     uint64 volatile code = 0x26;
 634              		.loc 1 148 5
 635              		.loc 1 148 21 is_stmt 0
 636 029c 93076002 		li	a5,38
 637 02a0 2334F4FE 		sd	a5,-24(s0)
 149:src/syscall_c.cpp ****     uint64 volatile volatile_id = (uint64)id;
 638              		.loc 1 149 5 is_stmt 1
 639              		.loc 1 149 21 is_stmt 0
 640 02a4 2330A4FE 		sd	a0,-32(s0)
 150:src/syscall_c.cpp ****     __asm__ volatile("mv a0, %0" :  : "r" (code));
 641              		.loc 1 150 5 is_stmt 1
 642              		.loc 1 150 44 is_stmt 0
 643 02a8 833784FE 		ld	a5,-24(s0)
 644              		.loc 1 150 50
 645              	#APP
 646              	# 150 "src/syscall_c.cpp" 1
 151              	    __asm__ volatile("mv a1, %0" :  : "r" (volatile_id));
 647              		mv a0, a5
 648              	# 0 "" 2
 649              		.loc 1 151 5 is_stmt 1
 650              		.loc 1 151 44 is_stmt 0
 651              	#NO_APP
 652 02b0 833704FE 		ld	a5,-32(s0)
 653              		.loc 1 151 57
 654              	#APP
 655              	# 151 "src/syscall_c.cpp" 1
 152              	
 153:src/syscall_c.cpp ****     __asm__ volatile("ecall");
 656              		mv a1, a5
 657              	# 0 "" 2
 658              		.loc 1 153 5 is_stmt 1
 659              		.loc 1 153 30 is_stmt 0
 660              	# 153 "src/syscall_c.cpp" 1
 154              	
 155:src/syscall_c.cpp ****     uint64 ret;
 661              		ecall
GAS LISTING /tmp/ccqcCSyB.s 			page 15


 662              	# 0 "" 2
 663              		.loc 1 155 5 is_stmt 1
 156:src/syscall_c.cpp **** 
 157:src/syscall_c.cpp ****     __asm__ volatile("mv %0, a0" : "=r" (ret));
 664              		.loc 1 157 5
 665              		.loc 1 157 47 is_stmt 0
 666              	# 157 "src/syscall_c.cpp" 1
 158              	    return ret;
 667              		mv a0, a0
 668              	# 0 "" 2
 669              	.LVL33:
 670              		.loc 1 158 5 is_stmt 1
 159:src/syscall_c.cpp **** 
 160:src/syscall_c.cpp **** }
 671              		.loc 1 160 1 is_stmt 0
 672              	#NO_APP
 673 02c0 1B050500 		sext.w	a0,a0
 674              	.LVL34:
 675 02c4 03348101 		ld	s0,24(sp)
 676              		.cfi_restore 8
 677              		.cfi_def_cfa 2, 32
 678 02c8 13010102 		addi	sp,sp,32
 679              		.cfi_def_cfa_offset 0
 680              	.LVL35:
 681 02cc 67800000 		jr	ra
 682              		.cfi_endproc
 683              	.LFE9:
 685              		.align	2
 686              		.globl	_Z13sem_timedwaitP4_semm
 688              	_Z13sem_timedwaitP4_semm:
 689              	.LFB10:
 161:src/syscall_c.cpp **** 
 162:src/syscall_c.cpp **** int sem_timedwait(sem_t id, time_t timeout){
 690              		.loc 1 162 44 is_stmt 1
 691              		.cfi_startproc
 692              	.LVL36:
 693 02d0 130101FF 		addi	sp,sp,-16
 694              		.cfi_def_cfa_offset 16
 695 02d4 23348100 		sd	s0,8(sp)
 696              		.cfi_offset 8, -8
 697 02d8 13040101 		addi	s0,sp,16
 698              		.cfi_def_cfa 8, 0
 163:src/syscall_c.cpp ****     return 0;
 699              		.loc 1 163 5
 164:src/syscall_c.cpp **** }
 700              		.loc 1 164 1 is_stmt 0
 701 02dc 13050000 		li	a0,0
 702              	.LVL37:
 703 02e0 03348100 		ld	s0,8(sp)
 704              		.cfi_restore 8
 705              		.cfi_def_cfa 2, 16
 706 02e4 13010101 		addi	sp,sp,16
 707              		.cfi_def_cfa_offset 0
 708 02e8 67800000 		jr	ra
 709              		.cfi_endproc
 710              	.LFE10:
 712              		.align	2
GAS LISTING /tmp/ccqcCSyB.s 			page 16


 713              		.globl	_Z10time_sleepm
 715              	_Z10time_sleepm:
 716              	.LFB11:
 165:src/syscall_c.cpp **** 
 166:src/syscall_c.cpp **** 
 167:src/syscall_c.cpp **** int time_sleep (time_t){
 717              		.loc 1 167 24 is_stmt 1
 718              		.cfi_startproc
 719 02ec 130101FF 		addi	sp,sp,-16
 720              		.cfi_def_cfa_offset 16
 721 02f0 23348100 		sd	s0,8(sp)
 722              		.cfi_offset 8, -8
 723 02f4 13040101 		addi	s0,sp,16
 724              		.cfi_def_cfa 8, 0
 168:src/syscall_c.cpp ****     return 0;
 725              		.loc 1 168 5
 169:src/syscall_c.cpp **** }
 726              		.loc 1 169 1 is_stmt 0
 727 02f8 13050000 		li	a0,0
 728 02fc 03348100 		ld	s0,8(sp)
 729              		.cfi_restore 8
 730              		.cfi_def_cfa 2, 16
 731 0300 13010101 		addi	sp,sp,16
 732              		.cfi_def_cfa_offset 0
 733 0304 67800000 		jr	ra
 734              		.cfi_endproc
 735              	.LFE11:
 737              		.align	2
 738              		.globl	_Z4getcv
 740              	_Z4getcv:
 741              	.LFB12:
 170:src/syscall_c.cpp **** 
 171:src/syscall_c.cpp **** char getc (){
 742              		.loc 1 171 13 is_stmt 1
 743              		.cfi_startproc
 744 0308 130101FE 		addi	sp,sp,-32
 745              		.cfi_def_cfa_offset 32
 746 030c 233C8100 		sd	s0,24(sp)
 747              		.cfi_offset 8, -8
 748 0310 13040102 		addi	s0,sp,32
 749              		.cfi_def_cfa 8, 0
 172:src/syscall_c.cpp ****     uint64 volatile code = 0x41;
 750              		.loc 1 172 5
 751              		.loc 1 172 21 is_stmt 0
 752 0314 93071004 		li	a5,65
 753 0318 2334F4FE 		sd	a5,-24(s0)
 173:src/syscall_c.cpp ****     __asm__ volatile("mv a0, %0" :  : "r" (code));
 754              		.loc 1 173 5 is_stmt 1
 755              		.loc 1 173 44 is_stmt 0
 756 031c 833784FE 		ld	a5,-24(s0)
 757              		.loc 1 173 50
 758              	#APP
 759              	# 173 "src/syscall_c.cpp" 1
 174              	    __asm__ volatile("ecall");
 760              		mv a0, a5
 761              	# 0 "" 2
 762              		.loc 1 174 5 is_stmt 1
GAS LISTING /tmp/ccqcCSyB.s 			page 17


 763              		.loc 1 174 30 is_stmt 0
 764              	# 174 "src/syscall_c.cpp" 1
 175              	    uint64 ret;
 765              		ecall
 766              	# 0 "" 2
 767              		.loc 1 175 5 is_stmt 1
 176:src/syscall_c.cpp ****     __asm__ volatile("mv %0, a0" : "=r" (ret));
 768              		.loc 1 176 5
 769              		.loc 1 176 47 is_stmt 0
 770              	# 176 "src/syscall_c.cpp" 1
 177              	    return (char)ret;
 771              		mv a0, a0
 772              	# 0 "" 2
 773              	.LVL38:
 774              		.loc 1 177 5 is_stmt 1
 178:src/syscall_c.cpp **** 
 179:src/syscall_c.cpp **** }
 775              		.loc 1 179 1 is_stmt 0
 776              	#NO_APP
 777 032c 1375F50F 		andi	a0,a0,0xff
 778              	.LVL39:
 779 0330 03348101 		ld	s0,24(sp)
 780              		.cfi_restore 8
 781              		.cfi_def_cfa 2, 32
 782 0334 13010102 		addi	sp,sp,32
 783              		.cfi_def_cfa_offset 0
 784 0338 67800000 		jr	ra
 785              		.cfi_endproc
 786              	.LFE12:
 788              		.align	2
 789              		.globl	_Z4putcc
 791              	_Z4putcc:
 792              	.LFB13:
 180:src/syscall_c.cpp **** 
 181:src/syscall_c.cpp **** void putc (char ch){
 793              		.loc 1 181 20 is_stmt 1
 794              		.cfi_startproc
 795              	.LVL40:
 796 033c 130101FE 		addi	sp,sp,-32
 797              		.cfi_def_cfa_offset 32
 798 0340 233C8100 		sd	s0,24(sp)
 799              		.cfi_offset 8, -8
 800 0344 13040102 		addi	s0,sp,32
 801              		.cfi_def_cfa 8, 0
 182:src/syscall_c.cpp ****     char volatile c = ch;
 802              		.loc 1 182 5
 803              		.loc 1 182 19 is_stmt 0
 804 0348 A307A4FE 		sb	a0,-17(s0)
 183:src/syscall_c.cpp ****     uint64 volatile code = 0x42;
 805              		.loc 1 183 5 is_stmt 1
 806              		.loc 1 183 21 is_stmt 0
 807 034c 93072004 		li	a5,66
 808 0350 2330F4FE 		sd	a5,-32(s0)
 184:src/syscall_c.cpp ****     __asm__ volatile("mv a0, %0" :  : "r" (code));
 809              		.loc 1 184 5 is_stmt 1
 810              		.loc 1 184 44 is_stmt 0
 811 0354 833704FE 		ld	a5,-32(s0)
GAS LISTING /tmp/ccqcCSyB.s 			page 18


 812              		.loc 1 184 50
 813              	#APP
 814              	# 184 "src/syscall_c.cpp" 1
 185              	    __asm__ volatile("mv a1, %0" :  : "r" (c));
 815              		mv a0, a5
 816              	# 0 "" 2
 817              		.loc 1 185 5 is_stmt 1
 818              		.loc 1 185 44 is_stmt 0
 819              	#NO_APP
 820 035c 8347F4FE 		lbu	a5,-17(s0)
 821              		.loc 1 185 47
 822              	#APP
 823              	# 185 "src/syscall_c.cpp" 1
 186              	    __asm__ volatile("ecall");
 824              		mv a1, a5
 825              	# 0 "" 2
 826              		.loc 1 186 5 is_stmt 1
 827              		.loc 1 186 30 is_stmt 0
 828              	# 186 "src/syscall_c.cpp" 1
 187              	}...
 829              		ecall
 830              	# 0 "" 2
 831              		.loc 1 187 1
 832              	#NO_APP
 833 0368 03348101 		ld	s0,24(sp)
 834              		.cfi_restore 8
 835              		.cfi_def_cfa 2, 32
 836 036c 13010102 		addi	sp,sp,32
 837              		.cfi_def_cfa_offset 0
 838 0370 67800000 		jr	ra
 839              		.cfi_endproc
 840              	.LFE13:
 842              	.Letext0:
 843              		.file 2 "src/../h/../lib/hw.h"
 844              		.file 3 "src/../h/syscall_c.h"
GAS LISTING /tmp/ccqcCSyB.s 			page 19

