GAS LISTING /tmp/cczHOHve.s 			page 1


   1              		.file	"userSemaphore.cpp"
   2              		.option pic
   3              		.option norelax
   4              		.text
   5              	.Ltext0:
   6              		.align	2
   7              		.globl	_ZN13userSemaphore7tryWaitEv
   9              	_ZN13userSemaphore7tryWaitEv:
  10              	.LFB28:
  11              		.file 1 "src/userSemaphore.cpp"
   1:src/userSemaphore.cpp **** //
   2:src/userSemaphore.cpp **** // Created by os on 5/16/24.
   3:src/userSemaphore.cpp **** //
   4:src/userSemaphore.cpp **** #include "../h/userSemaphore.hpp"
   5:src/userSemaphore.cpp **** 
   6:src/userSemaphore.cpp **** int userSemaphore::wait() {
   7:src/userSemaphore.cpp ****     if(--val < 0) block();
   8:src/userSemaphore.cpp ****     return 0;
   9:src/userSemaphore.cpp **** 
  10:src/userSemaphore.cpp **** }
  11:src/userSemaphore.cpp **** 
  12:src/userSemaphore.cpp **** int userSemaphore::tryWait() {
  12              		.loc 1 12 30
  13              		.cfi_startproc
  14              	.LVL0:
  15 0000 130101FF 		addi	sp,sp,-16
  16              		.cfi_def_cfa_offset 16
  17 0004 23348100 		sd	s0,8(sp)
  18              		.cfi_offset 8, -8
  19 0008 13040101 		addi	s0,sp,16
  20              		.cfi_def_cfa 8, 0
  13:src/userSemaphore.cpp ****     if(--val < 0) return 0;
  21              		.loc 1 13 5
  22              		.loc 1 13 10 is_stmt 0
  23 000c 83270500 		lw	a5,0(a0)
  24              		.loc 1 13 8
  25 0010 9B87F7FF 		addiw	a5,a5,-1
  26              		.loc 1 13 14
  27 0014 2320F500 		sw	a5,0(a0)
  28              		.loc 1 13 5
  29 0018 13970702 		slli	a4,a5,32
  30 001c 634A0700 		bltz	a4,.L5
  14:src/userSemaphore.cpp ****     if(val >= 0) return 1;
  31              		.loc 1 14 25
  32 0020 13051000 		li	a0,1
  33              	.LVL1:
  34              	.L2:
  15:src/userSemaphore.cpp ****     return -1;
  16:src/userSemaphore.cpp **** }
  35              		.loc 1 16 1
  36 0024 03348100 		ld	s0,8(sp)
  37              		.cfi_remember_state
  38              		.cfi_restore 8
  39              		.cfi_def_cfa 2, 16
  40 0028 13010101 		addi	sp,sp,16
  41              		.cfi_def_cfa_offset 0
  42 002c 67800000 		jr	ra
GAS LISTING /tmp/cczHOHve.s 			page 2


  43              	.LVL2:
  44              	.L5:
  45              		.cfi_restore_state
  13:src/userSemaphore.cpp ****     if(val >= 0) return 1;
  46              		.loc 1 13 26
  47 0030 13050000 		li	a0,0
  48              	.LVL3:
  49 0034 6FF01FFF 		j	.L2
  50              		.cfi_endproc
  51              	.LFE28:
  53              		.align	2
  54              		.globl	_ZN13userSemaphore5blockEv
  56              	_ZN13userSemaphore5blockEv:
  57              	.LFB30:
  17:src/userSemaphore.cpp **** 
  18:src/userSemaphore.cpp **** int userSemaphore::signal() {
  19:src/userSemaphore.cpp ****     if(++val <= 0) unblock();
  20:src/userSemaphore.cpp ****     return 0;
  21:src/userSemaphore.cpp **** 
  22:src/userSemaphore.cpp **** }
  23:src/userSemaphore.cpp **** 
  24:src/userSemaphore.cpp **** void userSemaphore::block() {
  58              		.loc 1 24 29 is_stmt 1
  59              		.cfi_startproc
  60              	.LVL4:
  61 0038 130101FC 		addi	sp,sp,-64
  62              		.cfi_def_cfa_offset 64
  63 003c 233C1102 		sd	ra,56(sp)
  64 0040 23388102 		sd	s0,48(sp)
  65 0044 23349102 		sd	s1,40(sp)
  66 0048 23302103 		sd	s2,32(sp)
  67 004c 233C3101 		sd	s3,24(sp)
  68              		.cfi_offset 1, -8
  69              		.cfi_offset 8, -16
  70              		.cfi_offset 9, -24
  71              		.cfi_offset 18, -32
  72              		.cfi_offset 19, -40
  73 0050 13040104 		addi	s0,sp,64
  74              		.cfi_def_cfa 8, 0
  75 0054 93040500 		mv	s1,a0
  25:src/userSemaphore.cpp ****     CCB *old = CCB::running;
  76              		.loc 1 25 5
  77              		.loc 1 25 10 is_stmt 0
  78 0058 97070000 		la	a5,_ZN3CCB7runningE
  78      83B70700 
  79 0060 03B90700 		ld	s2,0(a5)
  80              	.LVL5:
  26:src/userSemaphore.cpp ****     blocked.addLast(old);
  81              		.loc 1 26 5 is_stmt 1
  82              		.loc 1 26 20 is_stmt 0
  83 0064 93098500 		addi	s3,a0,8
  84              	.LVL6:
  85              	.LBB39:
  86              	.LBB40:
  87              	.LBB41:
  88              	.LBB42:
  89              		.file 2 "src/../h/list.hpp"
GAS LISTING /tmp/cczHOHve.s 			page 3


   1:src/../h/list.hpp **** //
   2:src/../h/list.hpp **** // Created by os on 5/8/24.
   3:src/../h/list.hpp **** //
   4:src/../h/list.hpp **** 
   5:src/../h/list.hpp **** #ifndef OSPROJECT_LIST_HPP
   6:src/../h/list.hpp **** #define OSPROJECT_LIST_HPP
   7:src/../h/list.hpp **** 
   8:src/../h/list.hpp **** #include "memoryAllocator.hpp"
   9:src/../h/list.hpp **** template<typename T>
  10:src/../h/list.hpp **** class List
  11:src/../h/list.hpp **** {
  12:src/../h/list.hpp **** private:
  13:src/../h/list.hpp ****     struct Elem
  14:src/../h/list.hpp ****     {
  15:src/../h/list.hpp ****         T *data;
  16:src/../h/list.hpp ****         Elem *next;
  17:src/../h/list.hpp **** 
  18:src/../h/list.hpp ****         Elem(T *data, Elem *next) : data(data), next(next) {}
  19:src/../h/list.hpp **** 
  20:src/../h/list.hpp ****         void* operator new(size_t size){
  21:src/../h/list.hpp ****             uint64 volatile num_of_blocks = (size + sizeof(uint64) + sizeof(void*)) / MEM_BLOCK_SIZ
  90              		.loc 2 21 29
  91 0068 233404FC 		sd	zero,-56(s0)
  22:src/../h/list.hpp ****             if(size + sizeof(void*) + sizeof(uint64) % MEM_BLOCK_SIZE) num_of_blocks++;
  92              		.loc 2 22 72
  93 006c 833784FC 		ld	a5,-56(s0)
  94 0070 93871700 		addi	a5,a5,1
  95 0074 2334F4FC 		sd	a5,-56(s0)
  23:src/../h/list.hpp **** 
  24:src/../h/list.hpp ****             return memoryAllocator::mem_alloc(num_of_blocks);
  96              		.loc 2 24 46
  97 0078 033584FC 		ld	a0,-56(s0)
  98              	.LVL7:
  99 007c 97000000 		call	_ZN15memoryAllocator9mem_allocEm@plt
  99      E7800000 
 100              	.LVL8:
 101              	.LBE42:
 102              	.LBE41:
 103              	.LBB43:
 104              	.LBB44:
  18:src/../h/list.hpp **** 
 105              		.loc 2 18 58
 106 0084 23302501 		sd	s2,0(a0)
 107 0088 23340500 		sd	zero,8(a0)
 108              	.LVL9:
 109              	.LBE44:
 110              	.LBE43:
  25:src/../h/list.hpp ****         }
  26:src/../h/list.hpp **** 
  27:src/../h/list.hpp ****         void operator delete(void* p){
  28:src/../h/list.hpp ****             memoryAllocator::mem_free(p);
  29:src/../h/list.hpp ****         }
  30:src/../h/list.hpp ****     };
  31:src/../h/list.hpp **** 
  32:src/../h/list.hpp ****     Elem *head, *tail;
  33:src/../h/list.hpp **** 
  34:src/../h/list.hpp **** public:
GAS LISTING /tmp/cczHOHve.s 			page 4


  35:src/../h/list.hpp ****     List() : head(0), tail(0) {}
  36:src/../h/list.hpp **** 
  37:src/../h/list.hpp ****     List(const List<T> &) = delete;
  38:src/../h/list.hpp **** 
  39:src/../h/list.hpp ****     List<T> &operator=(const List<T> &) = delete;
  40:src/../h/list.hpp **** 
  41:src/../h/list.hpp ****     void* operator new(size_t size){
  42:src/../h/list.hpp ****         uint64 volatile num_of_blocks = (size + sizeof(uint64) + sizeof(void*)) / MEM_BLOCK_SIZE;
  43:src/../h/list.hpp ****         if(size + sizeof(void*) + sizeof(uint64) % MEM_BLOCK_SIZE) num_of_blocks++;
  44:src/../h/list.hpp **** 
  45:src/../h/list.hpp ****         return memoryAllocator::mem_alloc(num_of_blocks);
  46:src/../h/list.hpp ****     }
  47:src/../h/list.hpp **** 
  48:src/../h/list.hpp ****     void operator delete(void* p){
  49:src/../h/list.hpp ****         memoryAllocator::mem_free(p);
  50:src/../h/list.hpp ****     }
  51:src/../h/list.hpp **** 
  52:src/../h/list.hpp **** 
  53:src/../h/list.hpp ****     void addFirst(T *data)
  54:src/../h/list.hpp ****     {
  55:src/../h/list.hpp ****         Elem *elem = new Elem(data, head);
  56:src/../h/list.hpp ****         head = elem;
  57:src/../h/list.hpp ****         if (!tail) { tail = head; }
  58:src/../h/list.hpp ****     }
  59:src/../h/list.hpp **** 
  60:src/../h/list.hpp ****     void addLast(T *data)
  61:src/../h/list.hpp ****     {
  62:src/../h/list.hpp ****         Elem *elem = new Elem(data, 0);
  63:src/../h/list.hpp ****         if (tail)
 111              		.loc 2 63 13
 112 008c 83B78900 		ld	a5,8(s3)
 113              		.loc 2 63 9
 114 0090 63860704 		beqz	a5,.L7
  64:src/../h/list.hpp ****         {
  65:src/../h/list.hpp ****             tail->next = elem;
 115              		.loc 2 65 13
 116 0094 23B4A700 		sd	a0,8(a5)
  66:src/../h/list.hpp ****             tail = elem;
 117              		.loc 2 66 13
 118 0098 23B4A900 		sd	a0,8(s3)
 119              	.L8:
 120              	.LVL10:
 121              	.LBE40:
 122              	.LBE39:
  27:src/userSemaphore.cpp ****     CCB::running = Scheduler::get();
 123              		.loc 1 27 5 is_stmt 1
 124              		.loc 1 27 34 is_stmt 0
 125 009c 97000000 		call	_ZN9Scheduler3getEv@plt
 125      E7800000 
 126              	.LVL11:
 127              		.loc 1 27 18
 128 00a4 97070000 		la	a5,_ZN3CCB7runningE
 128      83B70700 
 129 00ac 23B0A700 		sd	a0,0(a5)
  28:src/userSemaphore.cpp ****     CCB::contextSwitch(&old->context, &CCB::running->context);
 130              		.loc 1 28 5 is_stmt 1
 131              		.loc 1 28 23 is_stmt 0
GAS LISTING /tmp/cczHOHve.s 			page 5


 132 00b0 93058501 		addi	a1,a0,24
 133 00b4 13058901 		addi	a0,s2,24
 134 00b8 97000000 		call	_ZN3CCB13contextSwitchEPNS_7ContextES1_@plt
 134      E7800000 
 135              	.LVL12:
  29:src/userSemaphore.cpp **** 
  30:src/userSemaphore.cpp **** }
 136              		.loc 1 30 1
 137 00c0 83308103 		ld	ra,56(sp)
 138              		.cfi_remember_state
 139              		.cfi_restore 1
 140 00c4 03340103 		ld	s0,48(sp)
 141              		.cfi_restore 8
 142              		.cfi_def_cfa 2, 64
 143 00c8 83348102 		ld	s1,40(sp)
 144              		.cfi_restore 9
 145              	.LVL13:
 146 00cc 03390102 		ld	s2,32(sp)
 147              		.cfi_restore 18
 148              	.LVL14:
 149 00d0 83398101 		ld	s3,24(sp)
 150              		.cfi_restore 19
 151              	.LVL15:
 152 00d4 13010104 		addi	sp,sp,64
 153              		.cfi_def_cfa_offset 0
 154 00d8 67800000 		jr	ra
 155              	.LVL16:
 156              	.L7:
 157              		.cfi_restore_state
 158              	.LBB46:
 159              	.LBB45:
  67:src/../h/list.hpp ****         } else
  68:src/../h/list.hpp ****         {
  69:src/../h/list.hpp ****             head = tail = elem;
 160              		.loc 2 69 13
 161 00dc 23B4A900 		sd	a0,8(s3)
 162 00e0 23B4A400 		sd	a0,8(s1)
 163 00e4 6FF09FFB 		j	.L8
 164              	.LBE45:
 165              	.LBE46:
 166              		.cfi_endproc
 167              	.LFE30:
 169              		.align	2
 170              		.globl	_ZN13userSemaphore4waitEv
 172              	_ZN13userSemaphore4waitEv:
 173              	.LFB27:
   6:src/userSemaphore.cpp ****     if(--val < 0) block();
 174              		.loc 1 6 27 is_stmt 1
 175              		.cfi_startproc
 176              	.LVL17:
   7:src/userSemaphore.cpp ****     return 0;
 177              		.loc 1 7 5
   7:src/userSemaphore.cpp ****     return 0;
 178              		.loc 1 7 10 is_stmt 0
 179 00e8 83270500 		lw	a5,0(a0)
   7:src/userSemaphore.cpp ****     return 0;
 180              		.loc 1 7 8
GAS LISTING /tmp/cczHOHve.s 			page 6


 181 00ec 9B87F7FF 		addiw	a5,a5,-1
   7:src/userSemaphore.cpp ****     return 0;
 182              		.loc 1 7 14
 183 00f0 2320F500 		sw	a5,0(a0)
   7:src/userSemaphore.cpp ****     return 0;
 184              		.loc 1 7 5
 185 00f4 13970702 		slli	a4,a5,32
 186 00f8 63460700 		bltz	a4,.L16
   8:src/userSemaphore.cpp **** 
 187              		.loc 1 8 5 is_stmt 1
  10:src/userSemaphore.cpp **** 
 188              		.loc 1 10 1 is_stmt 0
 189 00fc 13050000 		li	a0,0
 190              	.LVL18:
 191 0100 67800000 		ret
 192              	.LVL19:
 193              	.L16:
   6:src/userSemaphore.cpp ****     if(--val < 0) block();
 194              		.loc 1 6 27 discriminator 1
 195 0104 130101FF 		addi	sp,sp,-16
 196              		.cfi_def_cfa_offset 16
 197 0108 23341100 		sd	ra,8(sp)
 198 010c 23308100 		sd	s0,0(sp)
 199              		.cfi_offset 1, -8
 200              		.cfi_offset 8, -16
 201 0110 13040101 		addi	s0,sp,16
 202              		.cfi_def_cfa 8, 0
   7:src/userSemaphore.cpp ****     return 0;
 203              		.loc 1 7 19 is_stmt 1 discriminator 1
   7:src/userSemaphore.cpp ****     return 0;
 204              		.loc 1 7 24 is_stmt 0 discriminator 1
 205 0114 97000000 		call	_ZN13userSemaphore5blockEv
 205      E7800000 
 206              	.LVL20:
   8:src/userSemaphore.cpp **** 
 207              		.loc 1 8 5 is_stmt 1 discriminator 1
  10:src/userSemaphore.cpp **** 
 208              		.loc 1 10 1 is_stmt 0 discriminator 1
 209 011c 13050000 		li	a0,0
 210 0120 83308100 		ld	ra,8(sp)
 211              		.cfi_restore 1
 212 0124 03340100 		ld	s0,0(sp)
 213              		.cfi_restore 8
 214              		.cfi_def_cfa 2, 16
 215 0128 13010101 		addi	sp,sp,16
 216              		.cfi_def_cfa_offset 0
 217 012c 67800000 		jr	ra
 218              		.cfi_endproc
 219              	.LFE27:
 221              		.align	2
 222              		.globl	_ZN13userSemaphore7unblockEv
 224              	_ZN13userSemaphore7unblockEv:
 225              	.LFB31:
  31:src/userSemaphore.cpp **** 
  32:src/userSemaphore.cpp **** void userSemaphore::unblock() {
 226              		.loc 1 32 31 is_stmt 1
 227              		.cfi_startproc
GAS LISTING /tmp/cczHOHve.s 			page 7


 228              	.LVL21:
 229 0130 130101FE 		addi	sp,sp,-32
 230              		.cfi_def_cfa_offset 32
 231 0134 233C1100 		sd	ra,24(sp)
 232 0138 23388100 		sd	s0,16(sp)
 233 013c 23349100 		sd	s1,8(sp)
 234              		.cfi_offset 1, -8
 235              		.cfi_offset 8, -16
 236              		.cfi_offset 9, -24
 237 0140 13040102 		addi	s0,sp,32
 238              		.cfi_def_cfa 8, 0
 239 0144 93070500 		mv	a5,a0
  33:src/userSemaphore.cpp ****     CCB* thread = blocked.removeFirst();
 240              		.loc 1 33 5
 241              	.LVL22:
 242              	.LBB47:
 243              	.LBB48:
  70:src/../h/list.hpp ****         }
  71:src/../h/list.hpp ****     }
  72:src/../h/list.hpp **** 
  73:src/../h/list.hpp ****     T *removeFirst()
  74:src/../h/list.hpp ****     {
  75:src/../h/list.hpp ****         if (!head) { return 0; }
 244              		.loc 2 75 14 is_stmt 0
 245 0148 03358500 		ld	a0,8(a0)
 246              	.LVL23:
 247              		.loc 2 75 9
 248 014c 63020504 		beqz	a0,.L20
 249              	.LVL24:
  76:src/../h/list.hpp **** 
  77:src/../h/list.hpp ****         Elem *elem = head;
  78:src/../h/list.hpp ****         head = head->next;
 250              		.loc 2 78 22
 251 0150 03378500 		ld	a4,8(a0)
 252              		.loc 2 78 9
 253 0154 23B4E700 		sd	a4,8(a5)
  79:src/../h/list.hpp ****         if (!head) { tail = 0; }
 254              		.loc 2 79 9
 255 0158 63080702 		beqz	a4,.L22
 256              	.L19:
  80:src/../h/list.hpp **** 
  81:src/../h/list.hpp ****         T *ret = elem->data;
 257              		.loc 2 81 12
 258 015c 83340500 		ld	s1,0(a0)
 259              	.LVL25:
 260              	.LBB49:
 261              	.LBB50:
  28:src/../h/list.hpp ****         }
 262              		.loc 2 28 38
 263 0160 97000000 		call	_ZN15memoryAllocator8mem_freeEPv@plt
 263      E7800000 
 264              	.LVL26:
 265              	.L18:
 266              	.LBE50:
 267              	.LBE49:
 268              	.LBE48:
 269              	.LBE47:
GAS LISTING /tmp/cczHOHve.s 			page 8


  34:src/userSemaphore.cpp ****     Scheduler::put(thread);
 270              		.loc 1 34 5 is_stmt 1
 271              		.loc 1 34 19 is_stmt 0
 272 0168 13850400 		mv	a0,s1
 273 016c 97000000 		call	_ZN9Scheduler3putEP3CCB@plt
 273      E7800000 
 274              	.LVL27:
  35:src/userSemaphore.cpp **** }
 275              		.loc 1 35 1
 276 0174 83308101 		ld	ra,24(sp)
 277              		.cfi_remember_state
 278              		.cfi_restore 1
 279 0178 03340101 		ld	s0,16(sp)
 280              		.cfi_restore 8
 281              		.cfi_def_cfa 2, 32
 282 017c 83348100 		ld	s1,8(sp)
 283              		.cfi_restore 9
 284              	.LVL28:
 285 0180 13010102 		addi	sp,sp,32
 286              		.cfi_def_cfa_offset 0
 287 0184 67800000 		jr	ra
 288              	.LVL29:
 289              	.L22:
 290              		.cfi_restore_state
 291              	.LBB52:
 292              	.LBB51:
  79:src/../h/list.hpp **** 
 293              		.loc 2 79 22
 294 0188 23B80700 		sd	zero,16(a5)
 295 018c 6FF01FFD 		j	.L19
 296              	.LVL30:
 297              	.L20:
  75:src/../h/list.hpp **** 
 298              		.loc 2 75 29
 299 0190 93040500 		mv	s1,a0
 300 0194 6FF05FFD 		j	.L18
 301              	.LBE51:
 302              	.LBE52:
 303              		.cfi_endproc
 304              	.LFE31:
 306              		.align	2
 307              		.globl	_ZN13userSemaphore6signalEv
 309              	_ZN13userSemaphore6signalEv:
 310              	.LFB29:
  18:src/userSemaphore.cpp ****     if(++val <= 0) unblock();
 311              		.loc 1 18 29 is_stmt 1
 312              		.cfi_startproc
 313              	.LVL31:
  19:src/userSemaphore.cpp ****     return 0;
 314              		.loc 1 19 5
  19:src/userSemaphore.cpp ****     return 0;
 315              		.loc 1 19 10 is_stmt 0
 316 0198 83270500 		lw	a5,0(a0)
  19:src/userSemaphore.cpp ****     return 0;
 317              		.loc 1 19 8
 318 019c 9B871700 		addiw	a5,a5,1
 319 01a0 1B870700 		sext.w	a4,a5
GAS LISTING /tmp/cczHOHve.s 			page 9


  19:src/userSemaphore.cpp ****     return 0;
 320              		.loc 1 19 14
 321 01a4 2320F500 		sw	a5,0(a0)
  19:src/userSemaphore.cpp ****     return 0;
 322              		.loc 1 19 5
 323 01a8 6356E000 		blez	a4,.L29
  20:src/userSemaphore.cpp **** 
 324              		.loc 1 20 5 is_stmt 1
  22:src/userSemaphore.cpp **** 
 325              		.loc 1 22 1 is_stmt 0
 326 01ac 13050000 		li	a0,0
 327              	.LVL32:
 328 01b0 67800000 		ret
 329              	.LVL33:
 330              	.L29:
  18:src/userSemaphore.cpp ****     if(++val <= 0) unblock();
 331              		.loc 1 18 29 discriminator 1
 332 01b4 130101FF 		addi	sp,sp,-16
 333              		.cfi_def_cfa_offset 16
 334 01b8 23341100 		sd	ra,8(sp)
 335 01bc 23308100 		sd	s0,0(sp)
 336              		.cfi_offset 1, -8
 337              		.cfi_offset 8, -16
 338 01c0 13040101 		addi	s0,sp,16
 339              		.cfi_def_cfa 8, 0
  19:src/userSemaphore.cpp ****     return 0;
 340              		.loc 1 19 20 is_stmt 1 discriminator 1
  19:src/userSemaphore.cpp ****     return 0;
 341              		.loc 1 19 27 is_stmt 0 discriminator 1
 342 01c4 97000000 		call	_ZN13userSemaphore7unblockEv
 342      E7800000 
 343              	.LVL34:
  20:src/userSemaphore.cpp **** 
 344              		.loc 1 20 5 is_stmt 1 discriminator 1
  22:src/userSemaphore.cpp **** 
 345              		.loc 1 22 1 is_stmt 0 discriminator 1
 346 01cc 13050000 		li	a0,0
 347 01d0 83308100 		ld	ra,8(sp)
 348              		.cfi_restore 1
 349 01d4 03340100 		ld	s0,0(sp)
 350              		.cfi_restore 8
 351              		.cfi_def_cfa 2, 16
 352 01d8 13010101 		addi	sp,sp,16
 353              		.cfi_def_cfa_offset 0
 354 01dc 67800000 		jr	ra
 355              		.cfi_endproc
 356              	.LFE29:
 358              		.align	2
 359              		.globl	_ZN13userSemaphore15createSemaphoreEi
 361              	_ZN13userSemaphore15createSemaphoreEi:
 362              	.LFB32:
  36:src/userSemaphore.cpp **** 
  37:src/userSemaphore.cpp **** userSemaphore *userSemaphore::createSemaphore(int val) {
 363              		.loc 1 37 56 is_stmt 1
 364              		.cfi_startproc
 365              	.LVL35:
 366 01e0 130101FD 		addi	sp,sp,-48
GAS LISTING /tmp/cczHOHve.s 			page 10


 367              		.cfi_def_cfa_offset 48
 368 01e4 23341102 		sd	ra,40(sp)
 369 01e8 23308102 		sd	s0,32(sp)
 370 01ec 233C9100 		sd	s1,24(sp)
 371              		.cfi_offset 1, -8
 372              		.cfi_offset 8, -16
 373              		.cfi_offset 9, -24
 374 01f0 13040103 		addi	s0,sp,48
 375              		.cfi_def_cfa 8, 0
 376 01f4 93040500 		mv	s1,a0
  38:src/userSemaphore.cpp ****     return new userSemaphore(val);
 377              		.loc 1 38 5
 378              	.LVL36:
 379              	.LBB53:
 380              	.LBB54:
 381              		.file 3 "src/../h/userSemaphore.hpp"
   1:src/../h/userSemaphore.hpp **** //
   2:src/../h/userSemaphore.hpp **** // Created by os on 5/16/24.
   3:src/../h/userSemaphore.hpp **** //
   4:src/../h/userSemaphore.hpp **** 
   5:src/../h/userSemaphore.hpp **** #ifndef OSPROJECT_USERSEMAPHORE_HPP
   6:src/../h/userSemaphore.hpp **** #define OSPROJECT_USERSEMAPHORE_HPP
   7:src/../h/userSemaphore.hpp **** 
   8:src/../h/userSemaphore.hpp **** #include "list.hpp"
   9:src/../h/userSemaphore.hpp **** #include "ccb.hpp"
  10:src/../h/userSemaphore.hpp **** 
  11:src/../h/userSemaphore.hpp **** class userSemaphore {
  12:src/../h/userSemaphore.hpp **** public:
  13:src/../h/userSemaphore.hpp ****     static userSemaphore* createSemaphore(int val = 1);
  14:src/../h/userSemaphore.hpp **** 
  15:src/../h/userSemaphore.hpp ****     int wait ();
  16:src/../h/userSemaphore.hpp **** 
  17:src/../h/userSemaphore.hpp ****     int signal ();
  18:src/../h/userSemaphore.hpp **** 
  19:src/../h/userSemaphore.hpp ****     int tryWait();
  20:src/../h/userSemaphore.hpp **** 
  21:src/../h/userSemaphore.hpp ****     void* operator new(size_t size){
  22:src/../h/userSemaphore.hpp ****         uint64 volatile num_of_blocks = (size + sizeof(uint64) + sizeof(void*)) / MEM_BLOCK_SIZE;
 382              		.loc 3 22 9
 383              		.loc 3 22 25 is_stmt 0
 384 01f8 233C04FC 		sd	zero,-40(s0)
  23:src/../h/userSemaphore.hpp ****         if(size + sizeof(void*) + sizeof(uint64) % MEM_BLOCK_SIZE) num_of_blocks++;
 385              		.loc 3 23 9 is_stmt 1
 386              		.loc 3 23 68
 387              		.loc 3 23 81 is_stmt 0
 388 01fc 833784FD 		ld	a5,-40(s0)
 389 0200 93871700 		addi	a5,a5,1
 390 0204 233CF4FC 		sd	a5,-40(s0)
  24:src/../h/userSemaphore.hpp **** 
  25:src/../h/userSemaphore.hpp ****         return memoryAllocator::mem_alloc(num_of_blocks);
 391              		.loc 3 25 9 is_stmt 1
 392              		.loc 3 25 42 is_stmt 0
 393 0208 033584FD 		ld	a0,-40(s0)
 394              	.LVL37:
 395 020c 97000000 		call	_ZN15memoryAllocator9mem_allocEm@plt
 395      E7800000 
 396              	.LVL38:
GAS LISTING /tmp/cczHOHve.s 			page 11


 397              	.LBE54:
 398              	.LBE53:
 399              	.LBB55:
 400              	.LBB56:
  26:src/../h/userSemaphore.hpp ****     }
  27:src/../h/userSemaphore.hpp **** 
  28:src/../h/userSemaphore.hpp ****     void operator delete(void* p){
  29:src/../h/userSemaphore.hpp ****         memoryAllocator::mem_free(p);
  30:src/../h/userSemaphore.hpp ****     }
  31:src/../h/userSemaphore.hpp ****     ~userSemaphore();
  32:src/../h/userSemaphore.hpp **** 
  33:src/../h/userSemaphore.hpp **** protected:
  34:src/../h/userSemaphore.hpp **** 
  35:src/../h/userSemaphore.hpp ****     void block ();
  36:src/../h/userSemaphore.hpp **** 
  37:src/../h/userSemaphore.hpp ****     void unblock ();
  38:src/../h/userSemaphore.hpp **** 
  39:src/../h/userSemaphore.hpp **** private:
  40:src/../h/userSemaphore.hpp ****     userSemaphore (unsigned short init=1) : val(init) {}
 401              		.loc 3 40 53
 402 0214 93940403 		slli	s1,s1,48
 403              	.LVL39:
 404 0218 93D40403 		srli	s1,s1,48
 405 021c 23209500 		sw	s1,0(a0)
 406              	.LVL40:
 407              	.LBB57:
 408              	.LBB58:
  35:src/../h/list.hpp **** 
 409              		.loc 2 35 29
 410 0220 23340500 		sd	zero,8(a0)
 411 0224 23380500 		sd	zero,16(a0)
 412              	.LVL41:
 413              	.LBE58:
 414              	.LBE57:
 415              	.LBE56:
 416              	.LBE55:
  39:src/userSemaphore.cpp **** }
 417              		.loc 1 39 1
 418 0228 83308102 		ld	ra,40(sp)
 419              		.cfi_restore 1
 420 022c 03340102 		ld	s0,32(sp)
 421              		.cfi_restore 8
 422              		.cfi_def_cfa 2, 48
 423 0230 83348101 		ld	s1,24(sp)
 424              		.cfi_restore 9
 425 0234 13010103 		addi	sp,sp,48
 426              		.cfi_def_cfa_offset 0
 427 0238 67800000 		jr	ra
 428              		.cfi_endproc
 429              	.LFE32:
 431              		.align	2
 432              		.globl	_ZN13userSemaphoreD2Ev
 434              	_ZN13userSemaphoreD2Ev:
 435              	.LFB34:
  40:src/userSemaphore.cpp **** 
  41:src/userSemaphore.cpp **** userSemaphore::~userSemaphore() {
 436              		.loc 1 41 1 is_stmt 1
GAS LISTING /tmp/cczHOHve.s 			page 12


 437              		.cfi_startproc
 438              		.cfi_personality 0x9b,DW.ref.__gxx_personality_v0
 439              		.cfi_lsda 0x1b,.LLSDA34
 440              	.LVL42:
 441 023c 130101FE 		addi	sp,sp,-32
 442              		.cfi_def_cfa_offset 32
 443 0240 233C1100 		sd	ra,24(sp)
 444 0244 23388100 		sd	s0,16(sp)
 445 0248 23349100 		sd	s1,8(sp)
 446 024c 23302101 		sd	s2,0(sp)
 447              		.cfi_offset 1, -8
 448              		.cfi_offset 8, -16
 449              		.cfi_offset 9, -24
 450              		.cfi_offset 18, -32
 451 0250 13040102 		addi	s0,sp,32
 452              		.cfi_def_cfa 8, 0
 453 0254 93040500 		mv	s1,a0
 454 0258 6F000002 		j	.L35
 455              	.LVL43:
 456              	.L37:
 457              	.LBB59:
 458              	.LBB60:
 459              	.LBB61:
  79:src/../h/list.hpp **** 
 460              		.loc 2 79 22 is_stmt 0
 461 025c 23B80400 		sd	zero,16(s1)
 462              	.L34:
 463              		.loc 2 81 12
 464 0260 03390500 		ld	s2,0(a0)
 465              	.LVL44:
 466              	.LBB62:
 467              	.LBB63:
  28:src/../h/list.hpp ****         }
 468              		.loc 2 28 38
 469 0264 97000000 		call	_ZN15memoryAllocator8mem_freeEPv@plt
 469      E7800000 
 470              	.LVL45:
 471              	.LBE63:
 472              	.LBE62:
 473              	.LBE61:
 474              	.LBE60:
  42:src/userSemaphore.cpp **** 
  43:src/userSemaphore.cpp ****     while(blocked.peekFirst()){
  44:src/userSemaphore.cpp ****         Scheduler::put(blocked.removeFirst());
 475              		.loc 1 44 23
 476 026c 13050900 		mv	a0,s2
 477 0270 97000000 		call	_ZN9Scheduler3putEP3CCB@plt
 477      E7800000 
 478              	.LVL46:
 479              	.L35:
  43:src/userSemaphore.cpp ****         Scheduler::put(blocked.removeFirst());
 480              		.loc 1 43 5 is_stmt 1
  43:src/userSemaphore.cpp ****         Scheduler::put(blocked.removeFirst());
 481              		.loc 1 43 29
 482              	.LBB65:
 483              	.LBB66:
  82:src/../h/list.hpp ****         delete elem;
GAS LISTING /tmp/cczHOHve.s 			page 13


  83:src/../h/list.hpp ****         return ret;
  84:src/../h/list.hpp ****     }
  85:src/../h/list.hpp **** 
  86:src/../h/list.hpp ****     T *peekFirst()
  87:src/../h/list.hpp ****     {
  88:src/../h/list.hpp ****         if (!head) { return 0; }
 484              		.loc 2 88 14 is_stmt 0
 485 0278 03B58400 		ld	a0,8(s1)
 486              		.loc 2 88 9
 487 027c 630E0500 		beqz	a0,.L32
  89:src/../h/list.hpp ****         return head->data;
 488              		.loc 2 89 22
 489 0280 83370500 		ld	a5,0(a0)
 490              	.LVL47:
 491              	.LBE66:
 492              	.LBE65:
  43:src/userSemaphore.cpp ****         Scheduler::put(blocked.removeFirst());
 493              		.loc 1 43 29
 494 0284 638A0700 		beqz	a5,.L32
 495              		.loc 1 44 9 is_stmt 1
 496              	.LVL48:
 497              	.LBB67:
 498              	.LBB64:
  78:src/../h/list.hpp ****         if (!head) { tail = 0; }
 499              		.loc 2 78 22 is_stmt 0
 500 0288 83378500 		ld	a5,8(a0)
  78:src/../h/list.hpp ****         if (!head) { tail = 0; }
 501              		.loc 2 78 9
 502 028c 23B4F400 		sd	a5,8(s1)
  79:src/../h/list.hpp **** 
 503              		.loc 2 79 9
 504 0290 E39807FC 		bnez	a5,.L34
 505 0294 6FF09FFC 		j	.L37
 506              	.LVL49:
 507              	.L32:
 508              	.LBE64:
 509              	.LBE67:
 510              	.LBE59:
  45:src/userSemaphore.cpp ****     }
  46:src/userSemaphore.cpp **** }
 511              		.loc 1 46 1
 512 0298 83308101 		ld	ra,24(sp)
 513              		.cfi_restore 1
 514 029c 03340101 		ld	s0,16(sp)
 515              		.cfi_restore 8
 516              		.cfi_def_cfa 2, 32
 517 02a0 83348100 		ld	s1,8(sp)
 518              		.cfi_restore 9
 519              	.LVL50:
 520 02a4 03390100 		ld	s2,0(sp)
 521              		.cfi_restore 18
 522 02a8 13010102 		addi	sp,sp,32
 523              		.cfi_def_cfa_offset 0
 524 02ac 67800000 		jr	ra
 525              		.cfi_endproc
 526              	.LFE34:
 527              		.globl	__gxx_personality_v0
GAS LISTING /tmp/cczHOHve.s 			page 14


 528              		.section	.gcc_except_table,"a",@progbits
 529              	.LLSDA34:
 530 0000 FF       		.byte	0xff
 531 0001 FF       		.byte	0xff
 532 0002 03       		.byte	0x3
 533 0003 00       		.byte	0
 534              		.text
 536              		.globl	_ZN13userSemaphoreD1Ev
 537              		.set	_ZN13userSemaphoreD1Ev,_ZN13userSemaphoreD2Ev
 538              	.Letext0:
 539              		.file 4 "src/../h/../lib/hw.h"
 540              		.file 5 "src/../h/memoryAllocator.hpp"
 541              		.file 6 "src/../h/scheduler.hpp"
 542              		.file 7 "src/../h/ccb.hpp"
 3767              		.align	3
 3770              	DW.ref.__gxx_personality_v0:
 3771 0000 00000000 		.dword	__gxx_personality_v0
 3771      00000000 
 3772              		.ident	"GCC: (Ubuntu 9.4.0-1ubuntu1~20.04) 9.4.0"
 3773              		.section	.note.GNU-stack,"",@progbits
GAS LISTING /tmp/cczHOHve.s 			page 15


DEFINED SYMBOLS
                            *ABS*:0000000000000000 userSemaphore.cpp
     /tmp/cczHOHve.s:9      .text:0000000000000000 _ZN13userSemaphore7tryWaitEv
     /tmp/cczHOHve.s:13     .text:0000000000000000 .L0 
     /tmp/cczHOHve.s:15     .text:0000000000000000 .L0 
     /tmp/cczHOHve.s:16     .text:0000000000000004 .L0 
     /tmp/cczHOHve.s:18     .text:0000000000000008 .L0 
     /tmp/cczHOHve.s:20     .text:000000000000000c .L0 
     /tmp/cczHOHve.s:22     .text:000000000000000c .L0 
     /tmp/cczHOHve.s:23     .text:000000000000000c .L0 
     /tmp/cczHOHve.s:25     .text:0000000000000010 .L0 
     /tmp/cczHOHve.s:27     .text:0000000000000014 .L0 
     /tmp/cczHOHve.s:29     .text:0000000000000018 .L0 
     /tmp/cczHOHve.s:32     .text:0000000000000020 .L0 
     /tmp/cczHOHve.s:36     .text:0000000000000024 .L0 
     /tmp/cczHOHve.s:37     .text:0000000000000028 .L0 
     /tmp/cczHOHve.s:38     .text:0000000000000028 .L0 
     /tmp/cczHOHve.s:39     .text:0000000000000028 .L0 
     /tmp/cczHOHve.s:41     .text:000000000000002c .L0 
     /tmp/cczHOHve.s:45     .text:0000000000000030 .L0 
     /tmp/cczHOHve.s:47     .text:0000000000000030 .L0 
     /tmp/cczHOHve.s:50     .text:0000000000000038 .L0 
     /tmp/cczHOHve.s:56     .text:0000000000000038 _ZN13userSemaphore5blockEv
     /tmp/cczHOHve.s:59     .text:0000000000000038 .L0 
     /tmp/cczHOHve.s:61     .text:0000000000000038 .L0 
     /tmp/cczHOHve.s:62     .text:000000000000003c .L0 
     /tmp/cczHOHve.s:68     .text:0000000000000050 .L0 
     /tmp/cczHOHve.s:69     .text:0000000000000050 .L0 
     /tmp/cczHOHve.s:70     .text:0000000000000050 .L0 
     /tmp/cczHOHve.s:71     .text:0000000000000050 .L0 
     /tmp/cczHOHve.s:72     .text:0000000000000050 .L0 
     /tmp/cczHOHve.s:74     .text:0000000000000054 .L0 
     /tmp/cczHOHve.s:77     .text:0000000000000058 .L0 
     /tmp/cczHOHve.s:78     .text:0000000000000058 .L0 
     /tmp/cczHOHve.s:82     .text:0000000000000064 .L0 
     /tmp/cczHOHve.s:83     .text:0000000000000064 .L0 
     /tmp/cczHOHve.s:91     .text:0000000000000068 .L0 
     /tmp/cczHOHve.s:93     .text:000000000000006c .L0 
     /tmp/cczHOHve.s:97     .text:0000000000000078 .L0 
     /tmp/cczHOHve.s:106    .text:0000000000000084 .L0 
     /tmp/cczHOHve.s:112    .text:000000000000008c .L0 
     /tmp/cczHOHve.s:114    .text:0000000000000090 .L0 
     /tmp/cczHOHve.s:116    .text:0000000000000094 .L0 
     /tmp/cczHOHve.s:118    .text:0000000000000098 .L0 
     /tmp/cczHOHve.s:124    .text:000000000000009c .L0 
     /tmp/cczHOHve.s:125    .text:000000000000009c .L0 
     /tmp/cczHOHve.s:128    .text:00000000000000a4 .L0 
     /tmp/cczHOHve.s:131    .text:00000000000000b0 .L0 
     /tmp/cczHOHve.s:132    .text:00000000000000b0 .L0 
     /tmp/cczHOHve.s:137    .text:00000000000000c0 .L0 
     /tmp/cczHOHve.s:138    .text:00000000000000c4 .L0 
     /tmp/cczHOHve.s:139    .text:00000000000000c4 .L0 
     /tmp/cczHOHve.s:141    .text:00000000000000c8 .L0 
     /tmp/cczHOHve.s:142    .text:00000000000000c8 .L0 
     /tmp/cczHOHve.s:144    .text:00000000000000cc .L0 
     /tmp/cczHOHve.s:147    .text:00000000000000d0 .L0 
     /tmp/cczHOHve.s:150    .text:00000000000000d4 .L0 
GAS LISTING /tmp/cczHOHve.s 			page 16


     /tmp/cczHOHve.s:153    .text:00000000000000d8 .L0 
     /tmp/cczHOHve.s:157    .text:00000000000000dc .L0 
     /tmp/cczHOHve.s:161    .text:00000000000000dc .L0 
     /tmp/cczHOHve.s:166    .text:00000000000000e8 .L0 
     /tmp/cczHOHve.s:172    .text:00000000000000e8 _ZN13userSemaphore4waitEv
     /tmp/cczHOHve.s:175    .text:00000000000000e8 .L0 
     /tmp/cczHOHve.s:177    .text:00000000000000e8 .L0 
     /tmp/cczHOHve.s:178    .text:00000000000000e8 .L0 
     /tmp/cczHOHve.s:179    .text:00000000000000e8 .L0 
     /tmp/cczHOHve.s:181    .text:00000000000000ec .L0 
     /tmp/cczHOHve.s:183    .text:00000000000000f0 .L0 
     /tmp/cczHOHve.s:185    .text:00000000000000f4 .L0 
     /tmp/cczHOHve.s:188    .text:00000000000000fc .L0 
     /tmp/cczHOHve.s:189    .text:00000000000000fc .L0 
     /tmp/cczHOHve.s:195    .text:0000000000000104 .L0 
     /tmp/cczHOHve.s:196    .text:0000000000000108 .L0 
     /tmp/cczHOHve.s:199    .text:0000000000000110 .L0 
     /tmp/cczHOHve.s:200    .text:0000000000000110 .L0 
     /tmp/cczHOHve.s:202    .text:0000000000000114 .L0 
     /tmp/cczHOHve.s:204    .text:0000000000000114 .L0 
     /tmp/cczHOHve.s:205    .text:0000000000000114 .L0 
     /tmp/cczHOHve.s:208    .text:000000000000011c .L0 
     /tmp/cczHOHve.s:209    .text:000000000000011c .L0 
     /tmp/cczHOHve.s:211    .text:0000000000000124 .L0 
     /tmp/cczHOHve.s:213    .text:0000000000000128 .L0 
     /tmp/cczHOHve.s:214    .text:0000000000000128 .L0 
     /tmp/cczHOHve.s:216    .text:000000000000012c .L0 
     /tmp/cczHOHve.s:218    .text:0000000000000130 .L0 
     /tmp/cczHOHve.s:224    .text:0000000000000130 _ZN13userSemaphore7unblockEv
     /tmp/cczHOHve.s:227    .text:0000000000000130 .L0 
     /tmp/cczHOHve.s:229    .text:0000000000000130 .L0 
     /tmp/cczHOHve.s:230    .text:0000000000000134 .L0 
     /tmp/cczHOHve.s:234    .text:0000000000000140 .L0 
     /tmp/cczHOHve.s:235    .text:0000000000000140 .L0 
     /tmp/cczHOHve.s:236    .text:0000000000000140 .L0 
     /tmp/cczHOHve.s:238    .text:0000000000000144 .L0 
     /tmp/cczHOHve.s:244    .text:0000000000000148 .L0 
     /tmp/cczHOHve.s:245    .text:0000000000000148 .L0 
     /tmp/cczHOHve.s:248    .text:000000000000014c .L0 
     /tmp/cczHOHve.s:251    .text:0000000000000150 .L0 
     /tmp/cczHOHve.s:253    .text:0000000000000154 .L0 
     /tmp/cczHOHve.s:255    .text:0000000000000158 .L0 
     /tmp/cczHOHve.s:258    .text:000000000000015c .L0 
     /tmp/cczHOHve.s:263    .text:0000000000000160 .L0 
     /tmp/cczHOHve.s:271    .text:0000000000000168 .L0 
     /tmp/cczHOHve.s:272    .text:0000000000000168 .L0 
     /tmp/cczHOHve.s:276    .text:0000000000000174 .L0 
     /tmp/cczHOHve.s:277    .text:0000000000000178 .L0 
     /tmp/cczHOHve.s:278    .text:0000000000000178 .L0 
     /tmp/cczHOHve.s:280    .text:000000000000017c .L0 
     /tmp/cczHOHve.s:281    .text:000000000000017c .L0 
     /tmp/cczHOHve.s:283    .text:0000000000000180 .L0 
     /tmp/cczHOHve.s:286    .text:0000000000000184 .L0 
     /tmp/cczHOHve.s:290    .text:0000000000000188 .L0 
     /tmp/cczHOHve.s:294    .text:0000000000000188 .L0 
     /tmp/cczHOHve.s:299    .text:0000000000000190 .L0 
     /tmp/cczHOHve.s:303    .text:0000000000000198 .L0 
GAS LISTING /tmp/cczHOHve.s 			page 17


     /tmp/cczHOHve.s:309    .text:0000000000000198 _ZN13userSemaphore6signalEv
     /tmp/cczHOHve.s:312    .text:0000000000000198 .L0 
     /tmp/cczHOHve.s:314    .text:0000000000000198 .L0 
     /tmp/cczHOHve.s:315    .text:0000000000000198 .L0 
     /tmp/cczHOHve.s:316    .text:0000000000000198 .L0 
     /tmp/cczHOHve.s:318    .text:000000000000019c .L0 
     /tmp/cczHOHve.s:321    .text:00000000000001a4 .L0 
     /tmp/cczHOHve.s:323    .text:00000000000001a8 .L0 
     /tmp/cczHOHve.s:325    .text:00000000000001ac .L0 
     /tmp/cczHOHve.s:326    .text:00000000000001ac .L0 
     /tmp/cczHOHve.s:332    .text:00000000000001b4 .L0 
     /tmp/cczHOHve.s:333    .text:00000000000001b8 .L0 
     /tmp/cczHOHve.s:336    .text:00000000000001c0 .L0 
     /tmp/cczHOHve.s:337    .text:00000000000001c0 .L0 
     /tmp/cczHOHve.s:339    .text:00000000000001c4 .L0 
     /tmp/cczHOHve.s:341    .text:00000000000001c4 .L0 
     /tmp/cczHOHve.s:342    .text:00000000000001c4 .L0 
     /tmp/cczHOHve.s:345    .text:00000000000001cc .L0 
     /tmp/cczHOHve.s:346    .text:00000000000001cc .L0 
     /tmp/cczHOHve.s:348    .text:00000000000001d4 .L0 
     /tmp/cczHOHve.s:350    .text:00000000000001d8 .L0 
     /tmp/cczHOHve.s:351    .text:00000000000001d8 .L0 
     /tmp/cczHOHve.s:353    .text:00000000000001dc .L0 
     /tmp/cczHOHve.s:355    .text:00000000000001e0 .L0 
     /tmp/cczHOHve.s:361    .text:00000000000001e0 _ZN13userSemaphore15createSemaphoreEi
     /tmp/cczHOHve.s:364    .text:00000000000001e0 .L0 
     /tmp/cczHOHve.s:366    .text:00000000000001e0 .L0 
     /tmp/cczHOHve.s:367    .text:00000000000001e4 .L0 
     /tmp/cczHOHve.s:371    .text:00000000000001f0 .L0 
     /tmp/cczHOHve.s:372    .text:00000000000001f0 .L0 
     /tmp/cczHOHve.s:373    .text:00000000000001f0 .L0 
     /tmp/cczHOHve.s:375    .text:00000000000001f4 .L0 
     /tmp/cczHOHve.s:382    .text:00000000000001f8 .L0 
     /tmp/cczHOHve.s:383    .text:00000000000001f8 .L0 
     /tmp/cczHOHve.s:384    .text:00000000000001f8 .L0 
     /tmp/cczHOHve.s:386    .text:00000000000001fc .L0 
     /tmp/cczHOHve.s:387    .text:00000000000001fc .L0 
     /tmp/cczHOHve.s:388    .text:00000000000001fc .L0 
     /tmp/cczHOHve.s:392    .text:0000000000000208 .L0 
     /tmp/cczHOHve.s:393    .text:0000000000000208 .L0 
     /tmp/cczHOHve.s:402    .text:0000000000000214 .L0 
     /tmp/cczHOHve.s:410    .text:0000000000000220 .L0 
     /tmp/cczHOHve.s:418    .text:0000000000000228 .L0 
     /tmp/cczHOHve.s:419    .text:000000000000022c .L0 
     /tmp/cczHOHve.s:421    .text:0000000000000230 .L0 
     /tmp/cczHOHve.s:422    .text:0000000000000230 .L0 
     /tmp/cczHOHve.s:424    .text:0000000000000234 .L0 
     /tmp/cczHOHve.s:426    .text:0000000000000238 .L0 
     /tmp/cczHOHve.s:428    .text:000000000000023c .L0 
     /tmp/cczHOHve.s:434    .text:000000000000023c _ZN13userSemaphoreD2Ev
     /tmp/cczHOHve.s:437    .text:000000000000023c .L0 
     /tmp/cczHOHve.s:3770   .data.rel.local.DW.ref.__gxx_personality_v0:0000000000000000 DW.ref.__gxx_personality_v0
     /tmp/cczHOHve.s:441    .text:000000000000023c .L0 
     /tmp/cczHOHve.s:442    .text:0000000000000240 .L0 
     /tmp/cczHOHve.s:447    .text:0000000000000250 .L0 
     /tmp/cczHOHve.s:448    .text:0000000000000250 .L0 
     /tmp/cczHOHve.s:449    .text:0000000000000250 .L0 
GAS LISTING /tmp/cczHOHve.s 			page 18


     /tmp/cczHOHve.s:450    .text:0000000000000250 .L0 
     /tmp/cczHOHve.s:452    .text:0000000000000254 .L0 
     /tmp/cczHOHve.s:461    .text:000000000000025c .L0 
     /tmp/cczHOHve.s:464    .text:0000000000000260 .L0 
     /tmp/cczHOHve.s:469    .text:0000000000000264 .L0 
     /tmp/cczHOHve.s:476    .text:000000000000026c .L0 
     /tmp/cczHOHve.s:481    .text:0000000000000278 .L0 
     /tmp/cczHOHve.s:484    .text:0000000000000278 .L0 
     /tmp/cczHOHve.s:485    .text:0000000000000278 .L0 
     /tmp/cczHOHve.s:487    .text:000000000000027c .L0 
     /tmp/cczHOHve.s:489    .text:0000000000000280 .L0 
     /tmp/cczHOHve.s:494    .text:0000000000000284 .L0 
     /tmp/cczHOHve.s:499    .text:0000000000000288 .L0 
     /tmp/cczHOHve.s:500    .text:0000000000000288 .L0 
     /tmp/cczHOHve.s:502    .text:000000000000028c .L0 
     /tmp/cczHOHve.s:504    .text:0000000000000290 .L0 
     /tmp/cczHOHve.s:512    .text:0000000000000298 .L0 
     /tmp/cczHOHve.s:513    .text:000000000000029c .L0 
     /tmp/cczHOHve.s:515    .text:00000000000002a0 .L0 
     /tmp/cczHOHve.s:516    .text:00000000000002a0 .L0 
     /tmp/cczHOHve.s:518    .text:00000000000002a4 .L0 
     /tmp/cczHOHve.s:521    .text:00000000000002a8 .L0 
     /tmp/cczHOHve.s:523    .text:00000000000002ac .L0 
     /tmp/cczHOHve.s:525    .text:00000000000002b0 .L0 
     /tmp/cczHOHve.s:434    .text:000000000000023c _ZN13userSemaphoreD1Ev
     /tmp/cczHOHve.s:543    .text:00000000000002b0 .L0 
     /tmp/cczHOHve.s:78     .text:0000000000000058 .L0 
     /tmp/cczHOHve.s:128    .text:00000000000000a4 .L0 
     /tmp/cczHOHve.s:44     .text:0000000000000030 .L5
     /tmp/cczHOHve.s:34     .text:0000000000000024 .L2
     /tmp/cczHOHve.s:156    .text:00000000000000dc .L7
     /tmp/cczHOHve.s:119    .text:000000000000009c .L8
     /tmp/cczHOHve.s:193    .text:0000000000000104 .L16
     /tmp/cczHOHve.s:297    .text:0000000000000190 .L20
     /tmp/cczHOHve.s:289    .text:0000000000000188 .L22
     /tmp/cczHOHve.s:256    .text:000000000000015c .L19
     /tmp/cczHOHve.s:265    .text:0000000000000168 .L18
     /tmp/cczHOHve.s:330    .text:00000000000001b4 .L29
     /tmp/cczHOHve.s:479    .text:0000000000000278 .L35
     /tmp/cczHOHve.s:507    .text:0000000000000298 .L32
     /tmp/cczHOHve.s:462    .text:0000000000000260 .L34
     /tmp/cczHOHve.s:456    .text:000000000000025c .L37
     /tmp/cczHOHve.s:1987   .debug_abbrev:0000000000000000 .Ldebug_abbrev0
     /tmp/cczHOHve.s:3712   .debug_str:000000000000064f .LASF106
     /tmp/cczHOHve.s:3730   .debug_str:0000000000000783 .LASF107
     /tmp/cczHOHve.s:3700   .debug_str:00000000000005f0 .LASF108
     /tmp/cczHOHve.s:5      .text:0000000000000000 .Ltext0
     /tmp/cczHOHve.s:538    .text:00000000000002b0 .Letext0
     /tmp/cczHOHve.s:3514   .debug_line:0000000000000000 .Ldebug_line0
     /tmp/cczHOHve.s:3636   .debug_str:00000000000003ac .LASF0
     /tmp/cczHOHve.s:3652   .debug_str:000000000000045a .LASF1
     /tmp/cczHOHve.s:3620   .debug_str:0000000000000347 .LASF2
     /tmp/cczHOHve.s:3598   .debug_str:000000000000026a .LASF4
     /tmp/cczHOHve.s:3694   .debug_str:00000000000005b5 .LASF3
     /tmp/cczHOHve.s:3534   .debug_str:00000000000000a8 .LASF5
     /tmp/cczHOHve.s:3566   .debug_str:0000000000000194 .LASF6
     /tmp/cczHOHve.s:3654   .debug_str:000000000000046d .LASF7
GAS LISTING /tmp/cczHOHve.s 			page 19


     /tmp/cczHOHve.s:3634   .debug_str:0000000000000399 .LASF8
     /tmp/cczHOHve.s:3724   .debug_str:0000000000000750 .LASF9
     /tmp/cczHOHve.s:3588   .debug_str:000000000000022b .LASF10
     /tmp/cczHOHve.s:3664   .debug_str:00000000000004c6 .LASF11
     /tmp/cczHOHve.s:3716   .debug_str:000000000000071f .LASF12
     /tmp/cczHOHve.s:3538   .debug_str:00000000000000b7 .LASF13
     /tmp/cczHOHve.s:3522   .debug_str:000000000000002b .LASF14
     /tmp/cczHOHve.s:3548   .debug_str:0000000000000117 .LASF15
     /tmp/cczHOHve.s:3686   .debug_str:000000000000056e .LASF16
     /tmp/cczHOHve.s:3560   .debug_str:000000000000016b .LASF17
     /tmp/cczHOHve.s:3542   .debug_str:00000000000000e0 .LASF24
     /tmp/cczHOHve.s:3520   .debug_str:000000000000001f .LASF29
     /tmp/cczHOHve.s:3756   .debug_str:000000000000085d .LASF18
     /tmp/cczHOHve.s:3706   .debug_str:0000000000000632 .LASF19
     /tmp/cczHOHve.s:3698   .debug_str:00000000000005e6 .LASF20
     /tmp/cczHOHve.s:3640   .debug_str:00000000000003c2 .LASF22
     /tmp/cczHOHve.s:3670   .debug_str:000000000000050d .LASF21
     /tmp/cczHOHve.s:3648   .debug_str:000000000000041e .LASF23
     /tmp/cczHOHve.s:3572   .debug_str:00000000000001a9 .LASF32
     /tmp/cczHOHve.s:3606   .debug_str:0000000000000287 .LASF33
     /tmp/cczHOHve.s:3516   .debug_str:0000000000000000 .LASF26
     /tmp/cczHOHve.s:3662   .debug_str:00000000000004bc .LASF25
     /tmp/cczHOHve.s:3732   .debug_str:0000000000000799 .LASF27
     /tmp/cczHOHve.s:3592   .debug_str:0000000000000247 .LASF109
     /tmp/cczHOHve.s:3644   .debug_str:00000000000003ee .LASF110
     /tmp/cczHOHve.s:3526   .debug_str:0000000000000052 .LASF28
     /tmp/cczHOHve.s:3718   .debug_str:000000000000072e .LASF30
     /tmp/cczHOHve.s:3678   .debug_str:0000000000000525 .LASF31
     /tmp/cczHOHve.s:3696   .debug_str:00000000000005c7 .LASF34
     /tmp/cczHOHve.s:3740   .debug_str:00000000000007e2 .LASF35
     /tmp/cczHOHve.s:3646   .debug_str:0000000000000406 .LASF36
     /tmp/cczHOHve.s:3702   .debug_str:000000000000060b .LASF42
     /tmp/cczHOHve.s:3584   .debug_str:00000000000001fe .LASF111
     /tmp/cczHOHve.s:3564   .debug_str:000000000000018f .LASF37
     /tmp/cczHOHve.s:3618   .debug_str:0000000000000342 .LASF38
     /tmp/cczHOHve.s:3596   .debug_str:0000000000000265 .LASF39
     /tmp/cczHOHve.s:3750   .debug_str:0000000000000838 .LASF40
     /tmp/cczHOHve.s:3660   .debug_str:00000000000004a5 .LASF49
     /tmp/cczHOHve.s:3628   .debug_str:0000000000000374 .LASF112
     /tmp/cczHOHve.s:3704   .debug_str:000000000000061b .LASF113
     /tmp/cczHOHve.s:3582   .debug_str:00000000000001eb .LASF41
     /tmp/cczHOHve.s:3586   .debug_str:0000000000000217 .LASF43
     /tmp/cczHOHve.s:3710   .debug_str:0000000000000646 .LASF44
     /tmp/cczHOHve.s:3734   .debug_str:00000000000007ad .LASF45
     /tmp/cczHOHve.s:3624   .debug_str:0000000000000361 .LASF46
     /tmp/cczHOHve.s:3614   .debug_str:0000000000000307 .LASF47
     /tmp/cczHOHve.s:3714   .debug_str:0000000000000713 .LASF48
     /tmp/cczHOHve.s:3656   .debug_str:0000000000000480 .LASF50
     /tmp/cczHOHve.s:3546   .debug_str:000000000000010d .LASF51
     /tmp/cczHOHve.s:3668   .debug_str:00000000000004f2 .LASF52
     /tmp/cczHOHve.s:3642   .debug_str:00000000000003e3 .LASF53
     /tmp/cczHOHve.s:3612   .debug_str:00000000000002ea .LASF54
     /tmp/cczHOHve.s:3610   .debug_str:00000000000002e1 .LASF55
     /tmp/cczHOHve.s:3748   .debug_str:000000000000081e .LASF56
     /tmp/cczHOHve.s:3568   .debug_str:000000000000019b .LASF57
     /tmp/cczHOHve.s:3720   .debug_str:0000000000000733 .LASF58
     /tmp/cczHOHve.s:3754   .debug_str:0000000000000851 .LASF59
GAS LISTING /tmp/cczHOHve.s 			page 20


     /tmp/cczHOHve.s:3736   .debug_str:00000000000007ca .LASF60
     /tmp/cczHOHve.s:3758   .debug_str:0000000000000862 .LASF61
     /tmp/cczHOHve.s:3676   .debug_str:0000000000000520 .LASF114
     /tmp/cczHOHve.s:3742   .debug_str:00000000000007ef .LASF115
     /tmp/cczHOHve.s:3626   .debug_str:0000000000000369 .LASF62
     /tmp/cczHOHve.s:3578   .debug_str:00000000000001bd .LASF63
     /tmp/cczHOHve.s:3622   .debug_str:0000000000000355 .LASF64
     /tmp/cczHOHve.s:3684   .debug_str:0000000000000557 .LASF65
     /tmp/cczHOHve.s:3638   .debug_str:00000000000003b9 .LASF116
     /tmp/cczHOHve.s:3518   .debug_str:000000000000000c .LASF117
     /tmp/cczHOHve.s:3532   .debug_str:000000000000009c .LASF66
     /tmp/cczHOHve.s:3552   .debug_str:000000000000013b .LASF67
     /tmp/cczHOHve.s:3726   .debug_str:0000000000000760 .LASF68
     /tmp/cczHOHve.s:3550   .debug_str:0000000000000123 .LASF118
     /tmp/cczHOHve.s:3688   .debug_str:0000000000000584 .LASF69
     /tmp/cczHOHve.s:3728   .debug_str:000000000000076d .LASF70
     /tmp/cczHOHve.s:3680   .debug_str:000000000000052a .LASF119
     /tmp/cczHOHve.s:3602   .debug_str:000000000000027a .LASF71
     /tmp/cczHOHve.s:3752   .debug_str:000000000000084b .LASF72
     /tmp/cczHOHve.s:3604   .debug_str:000000000000027f .LASF73
     /tmp/cczHOHve.s:3600   .debug_str:0000000000000271 .LASF74
     /tmp/cczHOHve.s:3554   .debug_str:0000000000000148 .LASF75
     /tmp/cczHOHve.s:3608   .debug_str:00000000000002b9 .LASF120
     /tmp/cczHOHve.s:3590   .debug_str:0000000000000239 .LASF121
     /tmp/cczHOHve.s:3540   .debug_str:00000000000000c7 .LASF122
     /tmp/cczHOHve.s:3690   .debug_str:000000000000058f .LASF76
     /tmp/cczHOHve.s:3576   .debug_str:00000000000001b8 .LASF77
     /tmp/cczHOHve.s:3558   .debug_str:000000000000015d .LASF78
     /tmp/cczHOHve.s:3746   .debug_str:000000000000080e .LASF79
     /tmp/cczHOHve.s:3528   .debug_str:000000000000005c .LASF80
     /tmp/cczHOHve.s:3574   .debug_str:00000000000001b3 .LASF81
     /tmp/cczHOHve.s:3530   .debug_str:0000000000000082 .LASF82
     /tmp/cczHOHve.s:3556   .debug_str:0000000000000156 .LASF83
     /tmp/cczHOHve.s:3692   .debug_str:0000000000000599 .LASF84
     /tmp/cczHOHve.s:3738   .debug_str:00000000000007da .LASF85
     /tmp/cczHOHve.s:3666   .debug_str:00000000000004d5 .LASF86
     /tmp/cczHOHve.s:3580   .debug_str:00000000000001d4 .LASF87
     /tmp/cczHOHve.s:3722   .debug_str:0000000000000738 .LASF88
     /tmp/cczHOHve.s:3708   .debug_str:0000000000000637 .LASF89
     /tmp/cczHOHve.s:3524   .debug_str:000000000000003b .LASF90
     /tmp/cczHOHve.s:3570   .debug_str:00000000000001a3 .LASF91
     /tmp/cczHOHve.s:3650   .debug_str:000000000000043f .LASF92
     /tmp/cczHOHve.s:3536   .debug_str:00000000000000af .LASF93
     /tmp/cczHOHve.s:3544   .debug_str:00000000000000f0 .LASF94
     /tmp/cczHOHve.s:3744   .debug_str:00000000000007f7 .LASF95
     /tmp/cczHOHve.s:3632   .debug_str:0000000000000391 .LASF96
     /tmp/cczHOHve.s:3672   .debug_str:0000000000000516 .LASF97
     /tmp/cczHOHve.s:3616   .debug_str:0000000000000323 .LASF100
     /tmp/cczHOHve.s:3562   .debug_str:0000000000000181 .LASF98
     /tmp/cczHOHve.s:3674   .debug_str:000000000000051b .LASF99
     /tmp/cczHOHve.s:3630   .debug_str:000000000000037e .LASF101
     /tmp/cczHOHve.s:3594   .debug_str:000000000000025b .LASF102
     /tmp/cczHOHve.s:3762   .debug_str:000000000000088c .LASF123
     /tmp/cczHOHve.s:435    .text:000000000000023c .LFB34
     /tmp/cczHOHve.s:526    .text:00000000000002b0 .LFE34
     /tmp/cczHOHve.s:3108   .debug_loc:0000000000000000 .LLST23
     /tmp/cczHOHve.s:458    .text:000000000000025c .LBB60
GAS LISTING /tmp/cczHOHve.s 			page 21


     /tmp/cczHOHve.s:3494   .debug_ranges:0000000000000000 .Ldebug_ranges0
     /tmp/cczHOHve.s:3126   .debug_loc:000000000000004c .LLST24
     /tmp/cczHOHve.s:3141   .debug_loc:0000000000000086 .LLST25
     /tmp/cczHOHve.s:3152   .debug_loc:00000000000000bc .LLST26
     /tmp/cczHOHve.s:466    .text:0000000000000264 .LBB62
     /tmp/cczHOHve.s:472    .text:000000000000026c .LBE62
     /tmp/cczHOHve.s:3159   .debug_loc:00000000000000df .LLST27
     /tmp/cczHOHve.s:470    .text:000000000000026c .LVL45
     /tmp/cczHOHve.s:482    .text:0000000000000278 .LBB65
     /tmp/cczHOHve.s:492    .text:0000000000000284 .LBE65
     /tmp/cczHOHve.s:3166   .debug_loc:0000000000000102 .LLST28
     /tmp/cczHOHve.s:478    .text:0000000000000278 .LVL46
     /tmp/cczHOHve.s:362    .text:00000000000001e0 .LFB32
     /tmp/cczHOHve.s:429    .text:000000000000023c .LFE32
     /tmp/cczHOHve.s:3175   .debug_loc:0000000000000127 .LLST18
     /tmp/cczHOHve.s:379    .text:00000000000001f8 .LBB53
     /tmp/cczHOHve.s:398    .text:0000000000000214 .LBE53
     /tmp/cczHOHve.s:3189   .debug_loc:0000000000000160 .LLST19
     /tmp/cczHOHve.s:396    .text:0000000000000214 .LVL38
     /tmp/cczHOHve.s:399    .text:0000000000000214 .LBB55
     /tmp/cczHOHve.s:416    .text:0000000000000228 .LBE55
     /tmp/cczHOHve.s:3197   .debug_loc:0000000000000184 .LLST20
     /tmp/cczHOHve.s:3204   .debug_loc:00000000000001a7 .LLST21
     /tmp/cczHOHve.s:407    .text:0000000000000220 .LBB57
     /tmp/cczHOHve.s:414    .text:0000000000000228 .LBE57
     /tmp/cczHOHve.s:3211   .debug_loc:00000000000001ca .LLST22
     /tmp/cczHOHve.s:225    .text:0000000000000130 .LFB31
     /tmp/cczHOHve.s:304    .text:0000000000000198 .LFE31
     /tmp/cczHOHve.s:3220   .debug_loc:00000000000001ef .LLST11
     /tmp/cczHOHve.s:3658   .debug_str:000000000000049e .LASF103
     /tmp/cczHOHve.s:3242   .debug_loc:000000000000024e .LLST12
     /tmp/cczHOHve.s:242    .text:0000000000000148 .LBB47
     /tmp/cczHOHve.s:3249   .debug_loc:0000000000000271 .LLST13
     /tmp/cczHOHve.s:3279   .debug_loc:00000000000002d8 .LLST14
     /tmp/cczHOHve.s:3290   .debug_loc:000000000000030e .LLST15
     /tmp/cczHOHve.s:260    .text:0000000000000160 .LBB49
     /tmp/cczHOHve.s:267    .text:0000000000000168 .LBE49
     /tmp/cczHOHve.s:3297   .debug_loc:0000000000000331 .LLST16
     /tmp/cczHOHve.s:264    .text:0000000000000168 .LVL26
     /tmp/cczHOHve.s:274    .text:0000000000000174 .LVL27
     /tmp/cczHOHve.s:57     .text:0000000000000038 .LFB30
     /tmp/cczHOHve.s:167    .text:00000000000000e8 .LFE30
     /tmp/cczHOHve.s:3304   .debug_loc:0000000000000354 .LLST1
     /tmp/cczHOHve.s:3332   .debug_loc:00000000000003c8 .LLST2
     /tmp/cczHOHve.s:85     .text:0000000000000068 .LBB39
     /tmp/cczHOHve.s:3343   .debug_loc:00000000000003fe .LLST3
     /tmp/cczHOHve.s:3354   .debug_loc:0000000000000434 .LLST4
     /tmp/cczHOHve.s:3365   .debug_loc:000000000000046a .LLST5
     /tmp/cczHOHve.s:87     .text:0000000000000068 .LBB41
     /tmp/cczHOHve.s:102    .text:0000000000000084 .LBE41
     /tmp/cczHOHve.s:3376   .debug_loc:00000000000004a0 .LLST6
     /tmp/cczHOHve.s:100    .text:0000000000000084 .LVL8
     /tmp/cczHOHve.s:103    .text:0000000000000084 .LBB43
     /tmp/cczHOHve.s:110    .text:000000000000008c .LBE43
     /tmp/cczHOHve.s:3384   .debug_loc:00000000000004c4 .LLST7
     /tmp/cczHOHve.s:3392   .debug_loc:00000000000004e8 .LLST8
     /tmp/cczHOHve.s:3399   .debug_loc:000000000000050b .LLST9
GAS LISTING /tmp/cczHOHve.s 			page 22


     /tmp/cczHOHve.s:126    .text:00000000000000a4 .LVL11
     /tmp/cczHOHve.s:135    .text:00000000000000c0 .LVL12
     /tmp/cczHOHve.s:310    .text:0000000000000198 .LFB29
     /tmp/cczHOHve.s:356    .text:00000000000001e0 .LFE29
     /tmp/cczHOHve.s:3406   .debug_loc:000000000000052e .LLST17
     /tmp/cczHOHve.s:343    .text:00000000000001cc .LVL34
     /tmp/cczHOHve.s:10     .text:0000000000000000 .LFB28
     /tmp/cczHOHve.s:51     .text:0000000000000038 .LFE28
     /tmp/cczHOHve.s:3431   .debug_loc:0000000000000590 .LLST0
     /tmp/cczHOHve.s:173    .text:00000000000000e8 .LFB27
     /tmp/cczHOHve.s:219    .text:0000000000000130 .LFE27
     /tmp/cczHOHve.s:3456   .debug_loc:00000000000005f2 .LLST10
     /tmp/cczHOHve.s:206    .text:000000000000011c .LVL20
     /tmp/cczHOHve.s:3760   .debug_str:0000000000000887 .LASF104
     /tmp/cczHOHve.s:3682   .debug_str:0000000000000540 .LASF105
     /tmp/cczHOHve.s:440    .text:000000000000023c .LVL42
     /tmp/cczHOHve.s:455    .text:000000000000025c .LVL43
     /tmp/cczHOHve.s:519    .text:00000000000002a4 .LVL50
     /tmp/cczHOHve.s:496    .text:0000000000000288 .LVL48
     /tmp/cczHOHve.s:506    .text:0000000000000298 .LVL49
     /tmp/cczHOHve.s:465    .text:0000000000000264 .LVL44
     /tmp/cczHOHve.s:490    .text:0000000000000284 .LVL47
     /tmp/cczHOHve.s:365    .text:00000000000001e0 .LVL35
     /tmp/cczHOHve.s:394    .text:000000000000020c .LVL37
     /tmp/cczHOHve.s:378    .text:00000000000001f8 .LVL36
     /tmp/cczHOHve.s:403    .text:0000000000000218 .LVL39
     /tmp/cczHOHve.s:412    .text:0000000000000228 .LVL41
     /tmp/cczHOHve.s:406    .text:0000000000000220 .LVL40
     /tmp/cczHOHve.s:228    .text:0000000000000130 .LVL21
     /tmp/cczHOHve.s:246    .text:000000000000014c .LVL23
     /tmp/cczHOHve.s:288    .text:0000000000000188 .LVL29
     /tmp/cczHOHve.s:284    .text:0000000000000180 .LVL28
     /tmp/cczHOHve.s:241    .text:0000000000000148 .LVL22
     /tmp/cczHOHve.s:249    .text:0000000000000150 .LVL24
     /tmp/cczHOHve.s:296    .text:0000000000000190 .LVL30
     /tmp/cczHOHve.s:259    .text:0000000000000160 .LVL25
     /tmp/cczHOHve.s:60     .text:0000000000000038 .LVL4
     /tmp/cczHOHve.s:98     .text:000000000000007c .LVL7
     /tmp/cczHOHve.s:145    .text:00000000000000cc .LVL13
     /tmp/cczHOHve.s:151    .text:00000000000000d4 .LVL15
     /tmp/cczHOHve.s:155    .text:00000000000000dc .LVL16
     /tmp/cczHOHve.s:80     .text:0000000000000064 .LVL5
     /tmp/cczHOHve.s:148    .text:00000000000000d0 .LVL14
     /tmp/cczHOHve.s:84     .text:0000000000000068 .LVL6
     /tmp/cczHOHve.s:120    .text:000000000000009c .LVL10
     /tmp/cczHOHve.s:108    .text:000000000000008c .LVL9
     /tmp/cczHOHve.s:313    .text:0000000000000198 .LVL31
     /tmp/cczHOHve.s:327    .text:00000000000001b0 .LVL32
     /tmp/cczHOHve.s:329    .text:00000000000001b4 .LVL33
     /tmp/cczHOHve.s:14     .text:0000000000000000 .LVL0
     /tmp/cczHOHve.s:33     .text:0000000000000024 .LVL1
     /tmp/cczHOHve.s:43     .text:0000000000000030 .LVL2
     /tmp/cczHOHve.s:48     .text:0000000000000034 .LVL3
     /tmp/cczHOHve.s:176    .text:00000000000000e8 .LVL17
     /tmp/cczHOHve.s:190    .text:0000000000000100 .LVL18
     /tmp/cczHOHve.s:192    .text:0000000000000104 .LVL19
     /tmp/cczHOHve.s:544    .debug_info:0000000000000000 .Ldebug_info0
GAS LISTING /tmp/cczHOHve.s 			page 23


     /tmp/cczHOHve.s:122    .text:000000000000009c .LBE39
     /tmp/cczHOHve.s:158    .text:00000000000000dc .LBB46
     /tmp/cczHOHve.s:165    .text:00000000000000e8 .LBE46
     /tmp/cczHOHve.s:269    .text:0000000000000168 .LBE47
     /tmp/cczHOHve.s:291    .text:0000000000000188 .LBB52
     /tmp/cczHOHve.s:302    .text:0000000000000198 .LBE52
     /tmp/cczHOHve.s:474    .text:000000000000026c .LBE60
     /tmp/cczHOHve.s:497    .text:0000000000000288 .LBB67
     /tmp/cczHOHve.s:509    .text:0000000000000298 .LBE67
     /tmp/cczHOHve.s:529    .gcc_except_table:0000000000000000 .LLSDA34

UNDEFINED SYMBOLS
_ZN3CCB7runningE
_ZN15memoryAllocator9mem_allocEm
_ZN9Scheduler3getEv
_ZN3CCB13contextSwitchEPNS_7ContextES1_
_ZN15memoryAllocator8mem_freeEPv
_ZN9Scheduler3putEP3CCB
__gxx_personality_v0
